******************************************************************************
                  TI ARM Linker Unix v18.12.2                  
******************************************************************************
>> Linked Tue Mar 14 15:40:48 2023

OUTPUT FILE NAME:   <FlightMCU.out>
ENTRY POINT SYMBOL: "_c_int00"  address: 00099540


MEMORY CONFIGURATION

         name            origin    length      used     unused   attr    fill
----------------------  --------  ---------  --------  --------  ----  --------
  VECTORS               00000000   00000020  00000020  00000000     X
  KERNEL                00000020   00008000  00006050  00001fb0  R  X
  FLASH0                00008020   00137fe0  0009ef67  00099079  R  X
  STACKS                08000000   00001400  00000000  00001400  RW  
  KRAM                  08001400   00000800  00000320  000004e0  RW  
  RAM                   08001c00   0002e400  0002d6a7  00000d59  RW  


SEGMENT ALLOCATION MAP

run origin  load origin   length   init length attrs members
----------  ----------- ---------- ----------- ----- -------
00000000    00000000    00006070   00006070    r-x
  00000000    00000000    00000020   00000020    r-x .intvecs
  00000020    00000020    00005f68   00005f68    r-x .kernelTEXT
  00005f88    00005f88    000000e8   000000e8    r-- .cinit
00008020    00008020    0009ef68   0009ef68    r-x
  00008020    00008020    0009b248   0009b248    r-x .text
  000a3268    000a3268    00003d0f   00003d0f    r-- .const
  000a6f78    000a6f78    00000010   00000010    r-- .init_array
08001400    08001400    00000320   00000000    rw-
  08001400    08001400    00000320   00000000    rw- .kernelBSS
08001c00    08001c00    0002d69e   00000000    rw-
  08001c00    08001c00    000199f8   00000000    rw- .bss
  0801b5f8    0801b5f8    0000fa00   00000000    rw- .kernelHEAP
  0802aff8    0802aff8    00004000   00000000    rw- .sysmem
  0802eff8    0802eff8    000002a6   00000000    rw- .data
0802f2a0    0802f2a0    00000009   00000009    rw-
  0802f2a0    0802f2a0    00000009   00000009    rw- .TI.persistent


SECTION ALLOCATION MAP

 output                                  attributes/
section   page    origin      length       input sections
--------  ----  ----------  ----------   ----------------
.intvecs   0    00000000    00000020     
                  00000000    00000020     sys_intvecs.obj (.intvecs)

.kernelTEXT 
*          0    00000020    00005f68     
                  00000020    00003570     os_tasks.obj (.kernelTEXT)
                  00003590    00001508     os_queue.obj (.kernelTEXT)
                  00004a98    000008d4     os_event_groups.obj (.kernelTEXT)
                  0000536c    000004bc     os_portasm.obj (.kernelTEXT)
                  00005828    000003e0     os_port.obj (.kernelTEXT)
                  00005c08    00000380     os_heap.obj (.kernelTEXT)

.cinit     0    00005f88    000000e8     
                  00005f88    0000009a     (.cinit..data.load) [load image, compression = lzss]
                  00006022    00000002     --HOLE-- [fill = 0]
                  00006024    0000000c     (__TI_handler_table)
                  00006030    00000009     (.cinit..kernelBSS.load) [load image, compression = lzss]
                  00006039    00000007     --HOLE-- [fill = 0]
                  00006040    00000008     (.cinit..bss.load) [load image, compression = zero_init]
                  00006048    00000008     (.cinit..kernelHEAP.load) [load image, compression = zero_init]
                  00006050    00000020     (__TI_cinit_table)

.text      0    00008020    0009b248     
                  00008020    000194f8     WatchDogInterfaceComponentAc.obj (.text)
                  00021518    00009af4     libSvcCmdDispatcher.a : CommandDispatcherComponentAc.o (.text)
                  0002b00c    000076a8     GroundInterfaceComponentAc.obj (.text)
                  000326b4    000074d0     libSvcActiveLogger.a : ActiveLoggerComponentAc.o (.text)
                  00039b84    000072b4     NetworkManagerComponentAc.obj (.text)
                  00040e38    00006fc0     MotorControlComponentAc.obj (.text)
                  00047df8    00006f58     NavigationComponentAc.obj (.text)
                  0004ed50    00004810     IMUComponentAc.obj (.text)
                  00053560    000043ec     CameraComponentAc.obj (.text)
                  0005794c    00003b08     libDrvBlockDriver.a : BlockDriverComponentAc.o (.text)
                  0005b454    00003658     libSvcActiveRateGroup.a : ActiveRateGroupComponentAc.o (.text)
                  0005eaac    00003114     Wf121BgApiCommands.obj (.text)
                  00061bc0    00002d28     Wf121BgApi.obj (.text)
                  000648e8    00002ce8     libFwTypes.a : Serializable.o (.text)
                  000675d0    00002cdc     sys_selftest.obj (.text)
                  0006a2ac    00002574     libSvcTlmChan.a : TlmChanComponentAc.o (.text)
                  0006c820    00001d90     WatchDogInterface.obj (.text)
                  0006e5b0    000019f8     NetworkInterface.obj (.text)
                  0006ffa8    00001598     MotorControlComponent.obj (.text)
                  00071540    000012f4     S25fl512l.obj (.text)
                  00072834    000012ec     GroundInterface.obj (.text)
                  00073b20    00001210     spi.obj (.text)
                  00074d30    00000fbc     libSvcActiveLogger.a : ActiveLoggerImpl.o (.text)
                  00075cec    00000f14     MotorCommandPortAc.obj (.text)
                  00076c00    00000eb8     adc.obj (.text)
                  00077ab8    00000e14     NetworkManager.obj (.text)
                  000788cc    00000ddc     FileDownlinkPortAc.obj (.text)
                  000796a8    00000d4c     IMUDataPortAc.obj (.text)
                  0007a3f4    00000cc8     CameraTakePicturePortAc.obj (.text)
                  0007b0bc    00000bd8     NavigationComponent.obj (.text)
                  0007bc94    00000bcc     libFwLog.a : LogTextPortAc.o (.text)
                  0007c860    00000bc0     WatchdogResetRequestPortAc.obj (.text)
                  0007d420    00000bac     os_mpu_wrappers.obj (.text)
                  0007dfcc    00000b94     libFwLog.a : LogPortAc.o (.text)
                  0007eb60    00000b78     system.obj (.text)
                  0007f6d8    00000b64     sci.obj (.text)
                  0008023c    00000b10     libSvcCmdDispatcher.a : CommandDispatcherImpl.o (.text)
                  00080d4c    00000afc     Wf121DirectMessage.obj (.text)
                  00081848    00000ad4     MotorDataPortAc.obj (.text)
                  0008231c    00000ac8     libFwCmd.a : CmdResponsePortAc.o (.text)
                  00082de4    00000a8c     libFwTlm.a : TlmPortAc.o (.text)
                  00083870    00000a78     libFwCmd.a : CmdPortAc.o (.text)
                  000842e8    00000a60     CubeRoverTopologyAppAc.obj (.text)
                  00084d48    00000a58     sys_vim.obj (.text)
                  000857a0    00000a4a     rtsv7R4_T_le_v3D16_eabi.lib : _printfi.c.obj (.text:__TI_printfi)
                  000861ea    00000002                                 : stdlib_typeinfo.cpp.obj (.text:_ZNSt9type_infoD1Ev)
                  000861ec    00000974     libFwCom.a : ComPortAc.o (.text)
                  00086b60    00000968     Wf121Parser.obj (.text)
                  000874c8    0000090c     libSvcRateGroupDriver.a : RateGroupDriverComponentAc.o (.text)
                  00087dd4    00000904     libDrvDataTypes.a : DataBufferPortAc.o (.text)
                  000886d8    000008dc     libFwBuffer.a : BufferSendPortAc.o (.text)
                  00088fb4    000008d8     i2c.obj (.text)
                  0008988c    000008d0     libSvcWatchDog.a : WatchDogPortAc.o (.text)
                  0008a15c    000008c4     libSvcFatal.a : FatalEventPortAc.o (.text)
                  0008aa20    000008c4     pinmux.obj (.text)
                  0008b2e4    000008a8     libSvcCycle.a : CyclePortAc.o (.text)
                  0008bb8c    000008a4     Camera.obj (.text)
                  0008c430    00000898     libSvcSched.a : SchedPortAc.o (.text)
                  0008ccc8    0000088c     libFwTime.a : TimePortAc.o (.text)
                  0008d554    00000880     libFwCmd.a : CmdRegPortAc.o (.text)
                  0008ddd4    00000880     libSvcPing.a : PingPortAc.o (.text)
                  0008e654    000007bc     libFwCmd.a : IrisCmdByteString.o (.text)
                  0008ee10    00000750     WatchDogRxTask.obj (.text)
                  0008f560    000006c4     libFwTime.a : Time.o (.text)
                  0008fc24    000006a0     sys_dma.obj (.text)
                  000902c4    00000664     errata_SSWF021_45.obj (.text)
                  00090928    00000638     rti.obj (.text)
                  00090f60    00000608     Topology.obj (.text)
                  00091568    000005f0     Wf121BgApiPassthroughTxTask.obj (.text)
                  00091b58    000005c4     UdpTxCommsStatusManager.obj (.text)
                  0009211c    000005c0     Wf121SerialInterface.obj (.text)
                  000926dc    000005bc     DMA.obj (.text)
                  00092c98    000005bc     esm.obj (.text)
                  00093254    00000524     Wf121.obj (.text)
                  00093778    0000051c     WatchDogMpsm.obj (.text)
                  00093c94    000004e0     Wf121RxTask.obj (.text)
                  00094174    0000049c     libSvcActiveRateGroup.a : ActiveRateGroupImpl.o (.text)
                  00094610    00000484     gio.obj (.text)
                  00094a94    00000460     IMUComponent.obj (.text)
                  00094ef4    00000428     libFwComp.a : ActiveComponentBase.o (.text)
                  0009531c    00000410     libSvcRateGroupDriver.a : RateGroupDriverImpl.o (.text)
                  0009572c    00000404     libFwTypes.a : StringType.o (.text)
                  00095b30    000003f8     libFwBuffer.a : BufferSerializableAc.o (.text)
                  00095f28    000003f0     MotorController_i2c.obj (.text)
                  00096318    000003e0     libSvcTime.a : TimeComponentAc.o (.text)
                  000966f8    000003d4     libSvcTlmChan.a : TlmChanImplRecv.o (.text)
                  00096acc    0000037c     WatchDogMpsm.obj (.text:_ZN9CubeRover12WatchDogMpsm21PrivateImplementation19checkForValidHeaderERNS0_7MessageE)
                  00096e48    00000354     SPI.obj (.text)
                  0009719c    0000034c     sys_core.obj (.text)
                  000974e8    00000330     sci.obj (.text:retain)
                  00097818    00000328     libDrvDataTypes.a : DataBuffer.o (.text)
                  00097b40    00000310     libFwCmd.a : CmdArgBuffer.o (.text)
                  00097e50    00000304     libFwCom.a : ComBuffer.o (.text)
                  00098154    00000304     libFwLog.a : LogBuffer.o (.text)
                  00098458    00000304     libFwTlm.a : TlmBuffer.o (.text)
                  0009875c    000002d8     sys_mpu.obj (.text)
                  00098a34    000002cc     sys_vim.obj (.text:retain)
                  00098d00    000002c4     Wf121UdpTxTask.obj (.text)
                  00098fc4    000002c4     libFwLog.a : LogString.o (.text)
                  00099288    000002b8     rtsv7R4_T_le_v3D16_eabi.lib : ull_div32.asm.obj (.text)
                  00099540    00000290     sys_startup.obj (.text:retain)
                  000997d0    00000278     libFwLog.a : TextLogString.o (.text)
                  00099a48    00000278     os_heap.obj (.text)
                  00099cc0    00000274     libFwCmd.a : CmdString.o (.text)
                  00099f34    00000274     libFwLog.a : LogPacket.o (.text)
                  0009a1a8    00000274     libFwTlm.a : TlmPacket.o (.text)
                  0009a41c    00000274     libOs.a : Queue.o (.text)
                  0009a690    00000274             : TaskString.o (.text)
                  0009a904    0000026c     libFwTypes.a : EightyCharString.o (.text)
                  0009ab70    00000268     libFwPort.a : OutputPortBase.o (.text)
                  0009add8    0000024c     libOs.a : Task.o (.text)
                  0009b024    00000248     rtsv7R4_T_le_v3D16_eabi.lib : _printfi.c.obj (.text:_pconv_a)
                  0009b26c    00000238     os_list.obj (.text)
                  0009b4a4    00000208     libOs.a : QueueString.o (.text)
                  0009b6ac    000001f4     libSvcTlmChan.a : TlmChanImplTask.o (.text)
                  0009b8a0    000001bc     adxl312.obj (.text)
                  0009ba5c    000001b4     os_port.obj (.text)
                  0009bc10    000001a0     rtsv7R4_T_le_v3D16_eabi.lib : _printfi.c.obj (.text:_pconv_g)
                  0009bdb0    0000019c     libFwCmd.a : CmdPacket.o (.text)
                  0009bf4c    0000017c     libSvcTlmChan.a : TlmChanImpl.o (.text)
                  0009c0c8    00000174     libDrvBlockDriver.a : BlockDriverImpl.o (.text)
                  0009c23c    00000174     libFwPort.a : InputPortBase.o (.text)
                  0009c3b0    00000168     os_tasks.obj (.text)
                  0009c518    0000015c     rtsv7R4_T_le_v3D16_eabi.lib : e_atan2f.c.obj (.text:atan2f)
                  0009c674    0000015c     libFwComp.a : PassiveComponentBase.o (.text)
                  0009c7d0    00000158     notification.obj (.text)
                  0009c928    00000154     rtsv7R4_T_le_v3D16_eabi.lib : s_atanf.c.obj (.text:atanf)
                  0009ca7c    00000150     l3gd20h.obj (.text)
                  0009cbcc    00000134     rtsv7R4_T_le_v3D16_eabi.lib : vla_alloc.c.obj (.text:__vla_alloc)
                  0009cd00    00000124     libFwComp.a : QueuedComponentBase.o (.text)
                  0009ce24    0000011c     libOs.a : IntervalTimer.o (.text)
                  0009cf40    0000011c     libSvcCycle.a : TimerVal.o (.text)
                  0009d05c    00000118     rtsv7R4_T_le_v3D16_eabi.lib : fputs.c.obj (.text:fputs)
                  0009d174    00000114     esm.obj (.text:retain)
                  0009d288    00000104     rtsv7R4_T_le_v3D16_eabi.lib : _printfi.c.obj (.text:_pconv_e)
                  0009d38c    00000104     libOs.a : TaskCommon.o (.text)
                  0009d490    000000fc     rtsv7R4_T_le_v3D16_eabi.lib : _printfi.c.obj (.text:fcvt)
                  0009d58c    000000f8                                 : memory.c.obj (.text:aligned_alloc)
                  0009d684    000000f8     libOs.a : QueueCommon.o (.text)
                  0009d77c    000000f0     rtsv7R4_T_le_v3D16_eabi.lib : s_scalbn.c.obj (.text:scalbn)
                  0009d86c    000000e8     dabort.obj (.text)
                  0009d954    000000e8     rtsv7R4_T_le_v3D16_eabi.lib : memory.c.obj (.text:free)
                  0009da3c    000000e4     libFwObj.a : ObjBase.o (.text)
                  0009db20    000000e0     rtsv7R4_T_le_v3D16_eabi.lib : s_floor.c.obj (.text:floor)
                  0009dc00    000000e0     sys_pmu.obj (.text)
                  0009dce0    000000dc     rtsv7R4_T_le_v3D16_eabi.lib : setvbuf.c.obj (.text:setvbuf)
                  0009ddbc    000000d8     libFwPort.a : PortBase.o (.text)
                  0009de94    000000d8     rtsv7R4_T_le_v3D16_eabi.lib : memory.c.obj (.text:realloc)
                  0009df6c    000000d0     sys_dma.obj (.text:retain)
                  0009e03c    000000c0     Main.obj (.text)
                  0009e0fc    000000b8     Wf121SerialInterface.obj (.text:_ZN5Wf12111Wf121Serial14DmaWriteStatus16blockingTimedOutEv)
                  0009e1b4    000000b4     NetworkInterface.obj (.text:_ZN5Wf12111RadioStatusC1Ev)
                  0009e268    000000b0     Wf121SerialInterface.obj (.text:_ZN5Wf12111Wf121Serial14DmaWriteStatus21blockingTimeRemainingEv)
                  0009e318    000000ad     rtsv7R4_T_le_v3D16_eabi.lib : _printfi.c.obj (.text:_ltostr)
                  0009e3c5    00000001     --HOLE-- [fill = 0]
                  0009e3c6    00000002                                 : _lock.c.obj (.text:_nop)
                  0009e3c8    000000a8     adxl312.obj (.text:lsb_to_acc)
                  0009e470    000000a4     libOs.a : Mutex.o (.text)
                  0009e514    0000009c     rtsv7R4_T_le_v3D16_eabi.lib : memcpy_t2.asm.obj (.text)
                  0009e5b0    00000098     libOs.a : File.o (.text)
                  0009e648    00000096     rtsv7R4_T_le_v3D16_eabi.lib : strerror.c.obj (.text:strerror)
                  0009e6de    00000002                                 : div0.asm.obj (.text)
                  0009e6e0    00000094     notification.obj (.text:Update_DMA_Comp_Flag)
                  0009e774    00000090     rtsv7R4_T_le_v3D16_eabi.lib : fputc.c.obj (.text:fputc)
                  0009e804    00000090     libSvcTlmChan.a : TlmChanImplGet.o (.text)
                  0009e894    0000008c     NetworkManager.obj (.text:_ZN5Wf12121SimpleAsyncFifoBufferIN9CubeRover27NetworkManagerComponentImpl29BgApiCommandPassthroughRecordELj3EjE15straighten_intoEPS3_)
                  0009e920    00000084     NetworkManager.obj (.text:_ZN5Wf12121SimpleAsyncFifoBufferIN9CubeRover27NetworkManagerComponentImpl29BgApiCommandPassthroughRecordELj3EjE7enqueueES3_)
                  0009e9a4    00000080     WatchDogMpsm.obj (.text:_ZN40_GLOBAL__N__16_WatchDogMpsm_cpp_1353cebe15HeaderRingArray12putOverwriteEh)
                  0009ea24    00000080     WatchDogMpsm.obj (.text:_ZN40_GLOBAL__N__16_WatchDogMpsm_cpp_1353cebe15HeaderRingArray3getERh)
                  0009eaa4    00000080     rtsv7R4_T_le_v3D16_eabi.lib : fflush.c.obj (.text:fflush)
                  0009eb24    0000007c     Wf121Parser.obj (.text:_ZN5Wf12121SimpleAsyncFifoBufferIhLj4EjE15straighten_intoEPh)
                  0009eba0    0000007c     NetworkInterface.obj (.text:_ZN5Wf1215BgApi11BgApiStatus16setProcessingCmdEb)
                  0009ec1c    0000007c     rtsv7R4_T_le_v3D16_eabi.lib : memory.c.obj (.text:split)
                  0009ec98    0000007a                                 : _printfi.c.obj (.text:_mcpy)
                  0009ed12    0000007a                                 : memset_t2.asm.obj (.text)
                  0009ed8c    00000078                                 : vla_alloc.c.obj (.text:_ZN33_INTERNAL_11_vla_alloc_c_be8bd49b21free_dead_allocationsEPv)
                  0009ee04    00000078                                 : vla_alloc.c.obj (.text:__vla_dealloc)
                  0009ee7c    00000078     libFwCom.a : ComPacket.o (.text)
                  0009eef4    00000078     libSvcLinuxTime.a : CubeRoverTimeImpl.o (.text)
                  0009ef6c    00000074     rtsv7R4_T_le_v3D16_eabi.lib : vec_newdel.c.obj (.text:_ZN34_INTERNAL_12_vec_newdel_c_8a08d4a520array_delete_generalEPvijjPFYS0_S0_EiPFYvS0_Eii)
                  0009efe0    00000074     NetworkInterface.obj (.text:_ZN5Wf1215BgApi11BgApiStatus15isProcessingCmdEv)
                  0009f054    00000074     rtsv7R4_T_le_v3D16_eabi.lib : fclose.c.obj (.text:__TI_closefile)
                  0009f0c8    00000074                                 : s_frexp.c.obj (.text:frexp)
                  0009f13c    00000072                                 : vec_newdel.c.obj (.text:_ZN34_INTERNAL_12_vec_newdel_c_8a08d4a517array_new_generalEPvijjS0_PFYS0_S0_ES2_PFYS0_jEPFYvS0_Eii)
                  0009f1ae    0000006c                                 : copy_decompress_lzss.c.obj (.text:decompress:lzss:__TI_decompress_lzss)
                  0009f21a    00000002     --HOLE-- [fill = 0]
                  0009f21c    00000068                                 : hostlseek.c.obj (.text:HOSTlseek)
                  0009f284    00000068                                 : hostrename.c.obj (.text:HOSTrename)
                  0009f2ec    00000068     Wf121Parser.obj (.text:_ZN5Wf12121SimpleAsyncFifoBufferIhLj4EjE7enqueueEh)
                  0009f354    00000068     rtsv7R4_T_le_v3D16_eabi.lib : printf.c.obj (.text:printf)
                  0009f3bc    00000064                                 : _io_perm.c.obj (.text:__TI_wrt_ok)
                  0009f420    00000064                                 : fprintf.c.obj (.text:fprintf)
                  0009f484    00000064                                 : fseek.c.obj (.text:fseek)
                  0009f4e8    00000060     NetworkManager.obj (.text:_ZN5Wf12110UdpPayload6copyInEjPh)
                  0009f548    00000060     Wf121SerialInterface.obj (.text:_ZN5Wf12111Wf121Serial14DmaWriteStatusC1Eb)
                  0009f5a8    00000060     rtsv7R4_T_le_v3D16_eabi.lib : autoinit.c.obj (.text:__TI_auto_init_nobinit:__TI_auto_init_nobinit)
                  0009f608    0000005c                                 : hostopen.c.obj (.text:HOSTopen)
                  0009f664    0000005c                                 : hostread.c.obj (.text:HOSTread)
                  0009f6c0    0000005c     Wf121SerialInterface.obj (.text:_ZN5Wf12111Wf121Serial14DmaWriteStatus4initEv)
                  0009f71c    00000058     rtsv7R4_T_le_v3D16_eabi.lib : hostwrite.c.obj (.text:HOSTwrite)
                  0009f774    00000058     WatchDogMpsm.obj (.text:_ZN40_GLOBAL__N__16_WatchDogMpsm_cpp_1353cebe15HeaderRingArray13offsetAndWrapEjj)
                  0009f7cc    00000058     NetworkManager.obj (.text:_ZN5Wf12121SimpleAsyncFifoBufferIN9CubeRover27NetworkManagerComponentImpl29BgApiCommandPassthroughRecordELj3EjE13force_enqueueES3_)
                  0009f824    00000058     rtsv7R4_T_le_v3D16_eabi.lib : close.c.obj (.text:close)
                  0009f87c    00000054     NetworkManager.obj (.text:_ZN5Wf12121SimpleAsyncFifoBufferIN9CubeRover27NetworkManagerComponentImpl29BgApiCommandPassthroughRecordELj3EjE7dequeueEv)
                  0009f8d0    00000054     rtsv7R4_T_le_v3D16_eabi.lib : ltoa.c.obj (.text:ltoa)
                  0009f924    00000054                                 : i_div32.asm.obj (.text)
                  0009f978    00000052                                 : _printfi.c.obj (.text:_ecpy)
                  0009f9ca    00000002     --HOLE-- [fill = 0]
                  0009f9cc    00000050     WatchDogMpsm.obj (.text:_ZN40_GLOBAL__N__16_WatchDogMpsm_cpp_1353cebe15HeaderRingArray4peekEj)
                  0009fa1c    00000050     Wf121Parser.obj (.text:_ZN5Wf12121SimpleAsyncFifoBufferIhLj4EjE7dequeueEv)
                  0009fa6c    00000050     rtsv7R4_T_le_v3D16_eabi.lib : _printfi.c.obj (.text:_pconv_f)
                  0009fabc    00000050                                 : atoi.c.obj (.text:atoi)
                  0009fb0c    00000050                                 : u_div32.asm.obj (.text)
                  0009fb5c    0000004c     Wf121SerialInterface.obj (.text:_ZN5Wf12111Wf121Serial14DmaWriteStatus15setSmartTimeoutEj)
                  0009fba8    0000004c     rtsv7R4_T_le_v3D16_eabi.lib : fflush.c.obj (.text:__TI_doflush)
                  0009fbf4    0000004c                                 : snprintf.c.obj (.text:snprintf)
                  0009fc40    00000044                                 : hostclose.c.obj (.text:HOSTclose)
                  0009fc84    00000044                                 : hostunlink.c.obj (.text:HOSTunlink)
                  0009fcc8    00000044                                 : dtor_list.c.obj (.text:_Z25__add_destruction_to_listPP20a_needed_destructionPFYvPvES2_S2_)
                  0009fd0c    00000044     WatchDogMpsm.obj (.text:_ZN40_GLOBAL__N__16_WatchDogMpsm_cpp_1353cebe15HeaderRingArray5clearEv)
                  0009fd50    00000044     NetworkManager.obj (.text:_ZN5Wf12121SimpleAsyncFifoBufferIN9CubeRover27NetworkManagerComponentImpl29BgApiCommandPassthroughRecordELj3EjEC1Ev)
                  0009fd94    00000044     rtsv7R4_T_le_v3D16_eabi.lib : exit.c.obj (.text:exit)
                  0009fdd8    00000044                                 : getdevice.c.obj (.text:getdevice)
                  0009fe1c    00000040                                 : dtor_list.c.obj (.text:_Z23__finalize_destructionsPP20a_needed_destructionPv)
                  0009fe5c    00000040     WatchDogInterface.obj (.text:_ZN9CubeRover30WatchDogInterfaceComponentImpl15TxCommandStatus5resetEv)
                  0009fe9c    00000040     rtsv7R4_T_le_v3D16_eabi.lib : _printfi.c.obj (.text:_fcpy)
                  0009fedc    00000040                                 : sprintf.c.obj (.text:sprintf)
                  0009ff1c    00000040                                 : vsnprintf.c.obj (.text:vsnprintf)
                  0009ff5c    0000003c     NetworkInterface.obj (.text:_ZN5Wf12120ProtectedRadioStatus17incUdpRxByteCountEj)
                  0009ff98    0000003c     NetworkInterface.obj (.text:_ZN5Wf12120ProtectedRadioStatus17incUdpTxByteCountEj)
                  0009ffd4    0000003c     NetworkInterface.obj (.text:_ZN5Wf12120ProtectedRadioStatus19incUdpRxPacketCountEj)
                  000a0010    0000003c     NetworkInterface.obj (.text:_ZN5Wf12120ProtectedRadioStatus19incUdpTxPacketCountEj)
                  000a004c    0000003c     NetworkInterface.obj (.text:_ZN5Wf12120ProtectedRadioStatus28incNumCompleteDirectMessagesEj)
                  000a0088    0000003c     WatchDogInterface.obj (.text:_ZN9CubeRover30WatchDogInterfaceComponentImpl14TxCommandArrayC1Ev)
                  000a00c4    0000003c     rtsv7R4_T_le_v3D16_eabi.lib : trgmsg.c.obj (.text:__TI_writemsg)
                  000a0100    00000038     NetworkInterface.obj (.text:_ZN5Wf12120ProtectedRadioStatus22copyUplinkEndpointIntoEPh)
                  000a0138    00000038     NetworkManager.obj (.text:_ZN5Wf12120ProtectedRadioStatus23updateLastHeartbeatTimeEv)
                  000a0170    00000038     NetworkManager.obj (.text:_ZN5Wf12127Wf121BgApiPassthroughTxTask23BgApiPassthroughMessageC1Ev)
                  000a01a8    00000038     WatchDogMpsm.obj (.text:_ZN9CubeRover12WatchDogMpsm21PrivateImplementationC1Ev)
                  000a01e0    00000038     libFwTypes.a : BasicTypes.o (.text)
                  000a0218    00000036     rtsv7R4_T_le_v3D16_eabi.lib : strncpy.c.obj (.text:strncpy)
                  000a024e    00000002     --HOLE-- [fill = 0]
                  000a0250    00000034     NetworkManager.obj (.text:_ZN5Wf12120ProtectedRadioStatus13getRadioStateEv)
                  000a0284    00000034     NetworkManager.obj (.text:_ZN5Wf12120ProtectedRadioStatus13setRadioStateENS_13DirectMessage12RadioSwStateE)
                  000a02b8    00000034     NetworkInterface.obj (.text:_ZN5Wf12120ProtectedRadioStatus16setRadioActivityENS_13DirectMessage15RadioSwActivityE)
                  000a02ec    00000034     NetworkInterface.obj (.text:_ZN5Wf12120ProtectedRadioStatus17setUplinkEndpointEh)
                  000a0320    00000034     NetworkInterface.obj (.text:_ZN5Wf12120ProtectedRadioStatus19getDownlinkEndpointEv)
                  000a0354    00000034     NetworkManager.obj (.text:_ZN5Wf12120ProtectedRadioStatus19getUdpRxPacketCountEv)
                  000a0388    00000034     GroundInterface.obj (.text:_ZN5Wf12120ProtectedRadioStatus19getUdpTxPacketCountEv)
                  000a03bc    00000034     NetworkInterface.obj (.text:_ZN5Wf12120ProtectedRadioStatus19setDownlinkEndpointEh)
                  000a03f0    00000034     NetworkManager.obj (.text:_ZN5Wf12120ProtectedRadioStatus22getLastHeartbeatTimeMsEv)
                  000a0424    00000034     NetworkManager.obj (.text:_ZN5Wf12120ProtectedRadioStatus28getNumCompleteDirectMessagesEv)
                  000a0458    00000034     NetworkManager.obj (.text:_ZN5Wf12120ProtectedRadioStatus32getCriticalCommsFailure_needHelpEv)
                  000a048c    00000034     NetworkManager.obj (.text:_ZN5Wf12120ProtectedRadioStatus32setCriticalCommsFailure_NeedHelpEb)
                  000a04c0    00000034     NetworkManager.obj (.text:_ZN5Wf12120ProtectedRadioStatus7getRssiEv)
                  000a04f4    00000034     NetworkInterface.obj (.text:_ZN5Wf12120ProtectedRadioStatus7setRssiEa)
                  000a0528    00000034     NetworkManager.obj (.text:_ZN5Wf12121SimpleAsyncFifoBufferIN9CubeRover27NetworkManagerComponentImpl29BgApiCommandPassthroughRecordELj3EjE5resetEv)
                  000a055c    00000034     Wf121Parser.obj (.text:_ZN5Wf12121SimpleAsyncFifoBufferIhLj4EjE5resetEv)
                  000a0590    00000034     Wf121BgApi.obj (.text:_ZN5Wf1215BgApi11BgApiDriver27cb_EventEndpointSyntaxErrorEth)
                  000a05c4    00000034     Wf121BgApi.obj (.text:_ZN5Wf1215BgApi11BgApiStatusC1Ev)
                  000a05f8    00000034     rtsv7R4_T_le_v3D16_eabi.lib : fopen.c.obj (.text:__TI_cleanup)
                  000a062c    00000034                                 : trgmsg.c.obj (.text:__TI_readmsg)
                  000a0660    00000034                                 : dtor_list.c.obj (.text:__aeabi_atexit)
                  000a0694    00000034                                 : getdevice.c.obj (.text:finddevice)
                  000a06c8    00000030     libSvcTlmChan.a : TlmChanImpl.o (.text:_ZN3Svc11TlmChanImpl6TlmSetC1Ev)
                  000a06f8    00000030     Wf121SerialInterface.obj (.text:_ZN5Wf12111Wf121Serial14DmaWriteStatus20restartBlockingTimerEv)
                  000a0728    00000030     NetworkInterface.obj (.text:_ZN5Wf12120ProtectedRadioStatusC1Ev)
                  000a0758    00000030     WatchDogMpsm.obj (.text:_ZNK40_GLOBAL__N__16_WatchDogMpsm_cpp_1353cebe15HeaderRingArray4fullEv)
                  000a0788    00000030     rtsv7R4_T_le_v3D16_eabi.lib : snprintf.c.obj (.text:_outs)
                  000a07b8    00000030                                 : vsnprintf.c.obj (.text:_outs)
                  000a07e8    0000002c     NetworkManager.obj (.text:_ZN5Wf12110UdpPayload5clearEv)
                  000a0814    0000002c     Wf121Parser.obj (.text:_ZN5Wf12111Wf121Parser19getBgapiPayloadSizeEPNS_5BgApi11BgApiHeaderE)
                  000a0840    0000002c     Wf121SerialInterface.obj (.text:_ZN5Wf12111Wf121Serial14DmaWriteStatus6isBusyEv)
                  000a086c    0000002c     Wf121SerialInterface.obj (.text:_ZN5Wf12111Wf121Serial14DmaWriteStatus7setBusyEb)
                  000a0898    0000002c     NetworkInterface.obj (.text:_ZN5Wf12127HerculesRadioUplinkResponseC1Et)
                  000a08c4    0000002c     NetworkManager.obj (.text:_ZN5Wf12127Wf121BgApiPassthroughTxTask23BgApiPassthroughMessage5clearEv)
                  000a08f0    0000002c     NetworkManager.obj (.text:_ZN9CubeRover27NetworkManagerComponentImpl29BgApiCommandPassthroughRecordC1Ev)
                  000a091c    0000002c     rtsv7R4_T_le_v3D16_eabi.lib : unlink.c.obj (.text:unlink)
                  000a0948    00000028     SCI.obj (.text)
                  000a0970    00000028     SCILIN.obj (.text)
                  000a0998    00000028     libSvcTlmChan.a : TlmChanImpl.o (.text:_ZN3Svc11TlmChanImpl6TlmSetD1Ev)
                  000a09c0    00000028     Wf121SerialInterface.obj (.text:_ZN5Wf12111Wf121Serial12dmaSendReadyEv)
                  000a09e8    00000028     NetworkManager.obj (.text:_ZN5Wf12121SimpleAsyncFifoBufferIN9CubeRover27NetworkManagerComponentImpl29BgApiCommandPassthroughRecordELj3EjE7is_fullEv)
                  000a0a10    00000028     NetworkManager.obj (.text:_ZN5Wf12121SimpleAsyncFifoBufferIN9CubeRover27NetworkManagerComponentImpl29BgApiCommandPassthroughRecordELj3EjE8is_emptyEv)
                  000a0a38    00000028     Wf121Parser.obj (.text:_ZN5Wf12121SimpleAsyncFifoBufferIhLj4EjE7is_fullEv)
                  000a0a60    00000028     Wf121Parser.obj (.text:_ZN5Wf12121SimpleAsyncFifoBufferIhLj4EjE8is_emptyEv)
                  000a0a88    00000028     WatchDogMpsm.obj (.text:_ZNK40_GLOBAL__N__16_WatchDogMpsm_cpp_1353cebe15HeaderRingArray5emptyEv)
                  000a0ab0    00000028     rtsv7R4_T_le_v3D16_eabi.lib : memory.c.obj (.text:free_list_insert)
                  000a0ad8    00000028                                 : lseek.c.obj (.text:lseek)
                  000a0b00    00000028                                 : e_sqrtf.c.obj (.text:sqrtf)
                  000a0b28    00000028                                 : vsprintf.c.obj (.text:vsprintf)
                  000a0b50    00000028                                 : write.c.obj (.text:write)
                  000a0b78    00000026                                 : vec_newdel.c.obj (.text:__cxa_vec_ctor)
                  000a0b9e    00000026                                 : memcmp.c.obj (.text:memcmp)
                  000a0bc4    00000024     IMUDataPortAc.obj (.text:_ZN14CubeRoverPorts41_GLOBAL__N__17_IMUDataPortAc_cpp_6437ed9e17IMUDataPortBufferC1Ev)
                  000a0be8    00000024     MotorDataPortAc.obj (.text:_ZN14CubeRoverPorts43_GLOBAL__N__19_MotorDataPortAc_cpp_bbdf208119MotorDataPortBufferC1Ev)
                  000a0c0c    00000024     MotorCommandPortAc.obj (.text:_ZN14CubeRoverPorts46_GLOBAL__N__22_MotorCommandPortAc_cpp_9498a4ec22MotorCommandPortBufferC1Ev)
                  000a0c30    00000024     WatchdogResetRequestPortAc.obj (.text:_ZN14CubeRoverPorts54_GLOBAL__N__30_WatchdogResetRequestPortAc_cpp_0f54cacb30WatchdogResetRequestPortBufferC1Ev)
                  000a0c54    00000024     WatchDogMpsm.obj (.text:_ZN40_GLOBAL__N__16_WatchDogMpsm_cpp_1353cebe15HeaderRingArrayC1Ev)
                  000a0c78    00000024     Wf121SerialInterface.obj (.text:_ZN5Wf12111Wf121Serial14DmaWriteStatusD1Ev)
                  000a0c9c    00000024     NetworkInterface.obj (.text:_ZN5Wf12118Wf121TxTaskManagerC1Ev)
                  000a0cc0    00000024     NetworkInterface.obj (.text:_ZN5Wf12120ProtectedRadioStatusD1Ev)
                  000a0ce4    00000024     Wf121Parser.obj (.text:_ZN5Wf12121SimpleAsyncFifoBufferIhLj4EjEC1Ev)
                  000a0d08    00000024     Wf121.obj (.text:_ZN5Wf12124Wf121RxCallbackProcessorC1Ev)
                  000a0d2c    00000024     WatchDogInterface.obj (.text:_ZN9CubeRover27WatchDogRxCallbackProcessorC1Ev)
                  000a0d50    00000024     WatchDogInterface.obj (.text:_ZN9CubeRover30WatchDogInterfaceComponentImpl15TxCommandStatusC1Ev)
                  000a0d74    00000024     FileDownlinkPortAc.obj (.text:_ZN9CubeRover46_GLOBAL__N__22_FileDownlinkPortAc_cpp_337b708822FileDownlinkPortBufferC1Ev)
                  000a0d98    00000024     NavigationComponentAc.obj (.text:_ZN9CubeRover49_GLOBAL__N__25_NavigationComponentAc_cpp_b9b8723430ComponentIpcSerializableBufferC1Ev)
                  000a0dbc    00000024     CameraTakePicturePortAc.obj (.text:_ZN9CubeRover51_GLOBAL__N__27_CameraTakePicturePortAc_cpp_d22da41c27CameraTakePicturePortBufferC1Ev)
                  000a0de0    00000024     WatchDogInterfaceComponentAc.obj (.text:_ZN9CubeRover56_GLOBAL__N__32_WatchDogInterfaceComponentAc_cpp_843fad5030ComponentIpcSerializableBufferC1Ev)
                  000a0e04    00000022     rtsv7R4_T_le_v3D16_eabi.lib : new.cpp.obj (.text:_Znwj)
                  000a0e26    00000002     --HOLE-- [fill = 0]
                  000a0e28    00000020     libSvcTlmChan.a : TlmChanImpl.o (.text:_ZN3Svc11TlmChanImpl8tlmEntryC1Ev)
                  000a0e48    00000020                     : TlmChanImpl.o (.text:_ZN3Svc11TlmChanImpl8tlmEntryD1Ev)
                  000a0e68    00000020     WatchDogMpsm.obj (.text:_ZN40_GLOBAL__N__16_WatchDogMpsm_cpp_1353cebe15HeaderRingArray16incrementAndWrapEj)
                  000a0e88    00000020     NetworkManager.obj (.text:_ZN5Wf12110UdpPayloadC1Ev)
                  000a0ea8    00000020     Main.obj (.text:_ZN5Wf12111Wf121Serial6setRTSEb)
                  000a0ec8    00000020     NetworkInterface.obj (.text:_ZN5Wf12116NetworkInterface19RequestUdpInterlockEPNS_5BgApi15BgApiCommBufferE)
                  000a0ee8    00000020     NetworkInterface.obj (.text:_ZN5Wf1215BgApi11BgApiDriver12cb_EventBootEttttttt)
                  000a0f08    00000020     Wf121BgApi.obj (.text:_ZN5Wf1215BgApi11BgApiDriver15cb_EventUdpDataEhPKhtPht)
                  000a0f28    00000020     NetworkInterface.obj (.text:_ZN5Wf1215BgApi11BgApiDriver17cb_CommandAdcReadEtht)
                  000a0f48    00000020     NetworkInterface.obj (.text:_ZN5Wf1215BgApi11BgApiDriver17cb_EventConnectedEaNS0_17HardwareInterfaceEPKhh)
                  000a0f68    00000020     NetworkInterface.obj (.text:_ZN5Wf1215BgApi11BgApiDriver18cb_EventApiRequestEjhhPKh)
                  000a0f88    00000020     NetworkInterface.obj (.text:_ZN5Wf1215BgApi11BgApiDriver18cb_EventScanResultEPKhasahS3_h)
                  000a0fa8    00000020     NetworkInterface.obj (.text:_ZN5Wf1215BgApi11BgApiDriver20cb_CommandRtcGetTimeEtsaaaaaa)
                  000a0fc8    00000020     NetworkInterface.obj (.text:_ZN5Wf1215BgApi11BgApiDriver20cb_EventDataEndpointEhPhh)
                  000a0fe8    00000020     NetworkInterface.obj (.text:_ZN5Wf1215BgApi11BgApiDriver21cb_CommandConnectSsidEtNS0_17HardwareInterfaceEPKh)
                  000a1008    00000020     NetworkInterface.obj (.text:_ZN5Wf1215BgApi11BgApiDriver22cb_CommandConnectBssidEtNS0_17HardwareInterfaceEPKh)
                  000a1028    00000020     NetworkInterface.obj (.text:_ZN5Wf1215BgApi11BgApiDriver22cb_EventApiRequestDataEjhPKh)
                  000a1048    00000020     NetworkInterface.obj (.text:_ZN5Wf1215BgApi11BgApiDriver22cb_EventConfigureTcpIpEPKhS3_S3_h)
                  000a1068    00000020     NetworkInterface.obj (.text:_ZN5Wf1215BgApi11BgApiDriver22cb_EventCredentialSsidENS0_17HardwareInterfaceEPKhh)
                  000a1088    00000020     NetworkInterface.obj (.text:_ZN5Wf1215BgApi11BgApiDriver22cb_EventEndpointStatusEhNS0_12EndpointTypeEhah)
                  000a10a8    00000020     NetworkInterface.obj (.text:_ZN5Wf1215BgApi11BgApiDriver22cb_EventScanSortResultEPKhasahS3_h)
                  000a10c8    00000020     NetworkInterface.obj (.text:_ZN5Wf1215BgApi11BgApiDriver24cb_EventApiRequestHeaderEjhPKh)
                  000a10e8    00000020     NetworkInterface.obj (.text:_ZN5Wf1215BgApi11BgApiDriver24cb_EventGetDnsHostByNameEtPKhS3_h)
                  000a1108    00000020     NetworkInterface.obj (.text:_ZN5Wf1215BgApi11BgApiDriver25cb_EventDhcpConfigurationEhPKhS3_j)
                  000a1128    00000020     NetworkInterface.obj (.text:_ZN5Wf1215BgApi11BgApiDriver25cb_EventUartConfigurationEhjhhhh)
                  000a1148    00000020     NetworkInterface.obj (.text:_ZN5Wf1215BgApi11BgApiDriver26cb_EventPersistentStoreKeyEthPKh)
                  000a1168    00000020     NetworkInterface.obj (.text:_ZN5Wf1215BgApi11BgApiDriver27cb_EventTcpIpEndpointStatusEhPKhtS3_t)
                  000a1188    00000020     NetworkInterface.obj (.text:_ZN5Wf1215BgApi11BgApiDriver29cb_EventWpsCredentialPasswordENS0_17HardwareInterfaceEPKhh)
                  000a11a8    00000020     NetworkInterface.obj (.text:_ZN5Wf1215BgApi15BgApiCommBufferC1Ev)
                  000a11c8    00000020     rtsv7R4_T_le_v3D16_eabi.lib : s_copysign.c.obj (.text:copysign)
                  000a11e8    00000020                                 : memchr.c.obj (.text:memchr)
                  000a1208    0000001e                                 : vec_newdel.c.obj (.text:__cxa_vec_dtor)
                  000a1226    0000001e                                 : strcat.c.obj (.text:strcat)
                  000a1244    0000001c     IMUComponent.obj (.text:_Z5atan2ff)
                  000a1260    0000001c     IMUDataPortAc.obj (.text:_ZN14CubeRoverPorts16InputIMUDataPortD0Ev)
                  000a127c    0000001c     IMUDataPortAc.obj (.text:_ZN14CubeRoverPorts17OutputIMUDataPortD0Ev)
                  000a1298    0000001c     MotorDataPortAc.obj (.text:_ZN14CubeRoverPorts18InputMotorDataPortD0Ev)
                  000a12b4    0000001c     MotorDataPortAc.obj (.text:_ZN14CubeRoverPorts19OutputMotorDataPortD0Ev)
                  000a12d0    0000001c     MotorCommandPortAc.obj (.text:_ZN14CubeRoverPorts21InputMotorCommandPortD0Ev)
                  000a12ec    0000001c     MotorCommandPortAc.obj (.text:_ZN14CubeRoverPorts22OutputMotorCommandPortD0Ev)
                  000a1308    0000001c     WatchdogResetRequestPortAc.obj (.text:_ZN14CubeRoverPorts29InputWatchdogResetRequestPortD0Ev)
                  000a1324    0000001c     WatchdogResetRequestPortAc.obj (.text:_ZN14CubeRoverPorts30OutputWatchdogResetRequestPortD0Ev)
                  000a1340    0000001c     IMUDataPortAc.obj (.text:_ZN14CubeRoverPorts41_GLOBAL__N__17_IMUDataPortAc_cpp_6437ed9e17IMUDataPortBufferD0Ev)
                  000a135c    0000001c     MotorDataPortAc.obj (.text:_ZN14CubeRoverPorts43_GLOBAL__N__19_MotorDataPortAc_cpp_bbdf208119MotorDataPortBufferD0Ev)
                  000a1378    0000001c     MotorCommandPortAc.obj (.text:_ZN14CubeRoverPorts46_GLOBAL__N__22_MotorCommandPortAc_cpp_9498a4ec22MotorCommandPortBufferD0Ev)
                  000a1394    0000001c     WatchdogResetRequestPortAc.obj (.text:_ZN14CubeRoverPorts54_GLOBAL__N__30_WatchdogResetRequestPortAc_cpp_0f54cacb30WatchdogResetRequestPortBufferD0Ev)
                  000a13b0    0000001c     CameraComponentAc.obj (.text:_ZN2Fw12InputCmdPortD0Ev)
                  000a13cc    0000001c     GroundInterfaceComponentAc.obj (.text:_ZN2Fw12InputComPortD0Ev)
                  000a13e8    0000001c     GroundInterfaceComponentAc.obj (.text:_ZN2Fw12InputLogPortD0Ev)
                  000a1404    0000001c     GroundInterfaceComponentAc.obj (.text:_ZN2Fw13OutputComPortD0Ev)
                  000a1420    0000001c     CameraComponentAc.obj (.text:_ZN2Fw13OutputLogPortD0Ev)
                  000a143c    0000001c     CameraComponentAc.obj (.text:_ZN2Fw13OutputTlmPortD0Ev)
                  000a1458    0000001c     CameraComponentAc.obj (.text:_ZN2Fw14OutputTimePortD0Ev)
                  000a1474    0000001c     CameraComponentAc.obj (.text:_ZN2Fw16OutputCmdRegPortD0Ev)
                  000a1490    0000001c     CameraComponentAc.obj (.text:_ZN2Fw17OutputLogTextPortD0Ev)
                  000a14ac    0000001c     GroundInterfaceComponentAc.obj (.text:_ZN2Fw19InputBufferSendPortD0Ev)
                  000a14c8    0000001c     GroundInterfaceComponentAc.obj (.text:_ZN2Fw20OutputBufferSendPortD0Ev)
                  000a14e4    0000001c     CameraComponentAc.obj (.text:_ZN2Fw21OutputCmdResponsePortD0Ev)
                  000a1500    0000001c     Camera.obj (.text:_ZN2Fw6BufferD0Ev)
                  000a151c    0000001c     IMUComponentAc.obj (.text:_ZN3Svc13InputPingPortD0Ev)
                  000a1538    0000001c     IMUComponentAc.obj (.text:_ZN3Svc14InputSchedPortD0Ev)
                  000a1554    0000001c     IMUComponentAc.obj (.text:_ZN3Svc14OutputPingPortD0Ev)
                  000a1570    0000001c     WatchDogInterfaceComponentAc.obj (.text:_ZN3Svc17InputWatchDogPortD0Ev)
                  000a158c    0000001c     Topology.obj (.text:_ZN3Svc8TimerValD0Ev)
                  000a15a8    0000001c     NetworkInterface.obj (.text:_ZN5Wf12111RadioStatusD0Ev)
                  000a15c4    0000001c     Wf121DirectMessage.obj (.text:_ZN5Wf12113DirectMessage19DirectMessageDriver15cb_dm_HeartbeatEhhNS0_12RadioSwStateENS0_15RadioSwActivityEb)
                  000a15e0    0000001c     NetworkInterface.obj (.text:_ZN5Wf12116NetworkInterface19ReleaseUdpInterlockEPNS_5BgApi15BgApiCommBufferE)
                  000a15fc    0000001c     NetworkInterface.obj (.text:_ZN5Wf12118Wf121TxTaskManagerD0Ev)
                  000a1618    0000001c     NetworkInterface.obj (.text:_ZN5Wf12120ProtectedRadioStatusD0Ev)
                  000a1634    0000001c     Wf121.obj (.text:_ZN5Wf12124Wf121RxCallbackProcessorD0Ev)
                  000a1650    0000001c     NetworkInterface.obj (.text:_ZN5Wf1215BgApi11BgApiDriver17cb_CommandStopWpsEtNS0_17HardwareInterfaceE)
                  000a166c    0000001c     NetworkInterface.obj (.text:_ZN5Wf1215BgApi11BgApiDriver17cb_EventWpsFailedEtNS0_17HardwareInterfaceE)
                  000a1688    0000001c     NetworkInterface.obj (.text:_ZN5Wf1215BgApi11BgApiDriver18cb_CommandStartWpsEtNS0_17HardwareInterfaceE)
                  000a16a4    0000001c     NetworkInterface.obj (.text:_ZN5Wf1215BgApi11BgApiDriver18cb_EventDhcpClientEPKhS3_)
                  000a16c0    0000001c     NetworkInterface.obj (.text:_ZN5Wf1215BgApi11BgApiDriver18cb_EventMacAddressENS0_17HardwareInterfaceEPKh)
                  000a16dc    0000001c     NetworkInterface.obj (.text:_ZN5Wf1215BgApi11BgApiDriver20cb_CommandDisconnectEtNS0_17HardwareInterfaceE)
                  000a16f8    0000001c     NetworkInterface.obj (.text:_ZN5Wf1215BgApi11BgApiDriver20cb_CommandSet11nModeEtNS0_17HardwareInterfaceE)
                  000a1714    0000001c     NetworkInterface.obj (.text:_ZN5Wf1215BgApi11BgApiDriver20cb_CommandStopApModeEtNS0_17HardwareInterfaceE)
                  000a1730    0000001c     NetworkInterface.obj (.text:_ZN5Wf1215BgApi11BgApiDriver20cb_CommandTcpConnectEth)
                  000a174c    0000001c     NetworkInterface.obj (.text:_ZN5Wf1215BgApi11BgApiDriver20cb_CommandUdpConnectEth)
                  000a1768    0000001c     NetworkInterface.obj (.text:_ZN5Wf1215BgApi11BgApiDriver20cb_EventApClientLeftEPKhNS0_17HardwareInterfaceE)
                  000a1784    0000001c     NetworkInterface.obj (.text:_ZN5Wf1215BgApi11BgApiDriver20cb_EventApModeFailedEtNS0_17HardwareInterfaceE)
                  000a17a0    0000001c     NetworkInterface.obj (.text:_ZN5Wf1215BgApi11BgApiDriver20cb_EventDisconnectedEtNS0_17HardwareInterfaceE)
                  000a17bc    0000001c     NetworkInterface.obj (.text:_ZN5Wf1215BgApi11BgApiDriver21cb_CommandDhcpClientsEth)
                  000a17d8    0000001c     NetworkInterface.obj (.text:_ZN5Wf1215BgApi11BgApiDriver21cb_CommandSetApHiddenEtNS0_17HardwareInterfaceE)
                  000a17f4    0000001c     NetworkInterface.obj (.text:_ZN5Wf1215BgApi11BgApiDriver21cb_CommandStartApModeEtNS0_17HardwareInterfaceE)
                  000a1810    0000001c     NetworkInterface.obj (.text:_ZN5Wf1215BgApi11BgApiDriver21cb_EventConnectFailedEtNS0_17HardwareInterfaceE)
                  000a182c    0000001c     NetworkInterface.obj (.text:_ZN5Wf1215BgApi11BgApiDriver21cb_EventErrorEndpointEth)
                  000a1848    0000001c     Wf121BgApi.obj (.text:_ZN5Wf1215BgApi11BgApiDriver21cb_EventSignalQualityEaNS0_17HardwareInterfaceE)
                  000a1864    0000001c     Wf121BgApi.obj (.text:_ZN5Wf1215BgApi11BgApiDriver22cb_CommandSendEndpointEth)
                  000a1880    0000001c     NetworkInterface.obj (.text:_ZN5Wf1215BgApi11BgApiDriver22cb_CommandSetStreamingEth)
                  000a189c    0000001c     NetworkInterface.obj (.text:_ZN5Wf1215BgApi11BgApiDriver22cb_EventApClientJoinedEPKhNS0_17HardwareInterfaceE)
                  000a18b8    0000001c     NetworkInterface.obj (.text:_ZN5Wf1215BgApi11BgApiDriver23cb_CommandCloseEndpointEth)
                  000a18d4    0000001c     NetworkInterface.obj (.text:_ZN5Wf1215BgApi11BgApiDriver23cb_CommandGetMacAddressEtNS0_17HardwareInterfaceE)
                  000a18f0    0000001c     NetworkInterface.obj (.text:_ZN5Wf1215BgApi11BgApiDriver23cb_CommandSetMacAddressEtNS0_17HardwareInterfaceE)
                  000a190c    0000001c     NetworkInterface.obj (.text:_ZN5Wf1215BgApi11BgApiDriver23cb_EventClosingEndpointEth)
                  000a1928    0000001c     NetworkInterface.obj (.text:_ZN5Wf1215BgApi11BgApiDriver23cb_EventInterfaceStatusENS0_17HardwareInterfaceEh)
                  000a1944    0000001c     NetworkInterface.obj (.text:_ZN5Wf1215BgApi11BgApiDriver24cb_CommandStartTcpServerEth)
                  000a1960    0000001c     NetworkInterface.obj (.text:_ZN5Wf1215BgApi11BgApiDriver24cb_CommandStartUdpServerEth)
                  000a197c    0000001c     NetworkInterface.obj (.text:_ZN5Wf1215BgApi11BgApiDriver25cb_CommandDisableEndpointEth)
                  000a1998    0000001c     NetworkInterface.obj (.text:_ZN5Wf1215BgApi11BgApiDriver25cb_CommandDnsSdAddServiceEth)
                  000a19b4    0000001c     NetworkInterface.obj (.text:_ZN5Wf1215BgApi11BgApiDriver25cb_CommandSetApMaxClientsEtNS0_17HardwareInterfaceE)
                  000a19d0    0000001c     Wf121BgApi.obj (.text:_ZN5Wf1215BgApi11BgApiDriver25cb_CommandSetTransmitSizeEth)
                  000a19ec    0000001c     NetworkInterface.obj (.text:_ZN5Wf1215BgApi11BgApiDriver25cb_EventDnsConfigureTcpIpEhPKh)
                  000a1a08    0000001c     NetworkInterface.obj (.text:_ZN5Wf1215BgApi11BgApiDriver25cb_EventExternalInterruptEhj)
                  000a1a24    0000001c     NetworkInterface.obj (.text:_ZN5Wf1215BgApi11BgApiDriver25cb_EventSoftwareExceptionEjh)
                  000a1a40    0000001c     NetworkInterface.obj (.text:_ZN5Wf1215BgApi11BgApiDriver26cb_CommandGetSignalQualityEtNS0_17HardwareInterfaceE)
                  000a1a5c    0000001c     NetworkInterface.obj (.text:_ZN5Wf1215BgApi11BgApiDriver26cb_EventDnsSdServiceFailedEth)
                  000a1a78    0000001c     NetworkInterface.obj (.text:_ZN5Wf1215BgApi11BgApiDriver27cb_CommandSetActiveEndpointEth)
                  000a1a94    0000001c     NetworkInterface.obj (.text:_ZN5Wf1215BgApi11BgApiDriver27cb_EventDnsSdServiceStoppedEth)
                  000a1ab0    0000001c     NetworkInterface.obj (.text:_ZN5Wf1215BgApi11BgApiDriver28cb_CommandDisconnectApClientEtNS0_17HardwareInterfaceE)
                  000a1acc    0000001c     NetworkInterface.obj (.text:_ZN5Wf1215BgApi11BgApiDriver30cb_CommandSetApClientIsolationEtNS0_17HardwareInterfaceE)
                  000a1ae8    0000001c     NetworkInterface.obj (.text:_ZN5Wf1215BgApi11BgApiDriver33cb_CommandSetStreamingDestinationEth)
                  000a1b04    0000001c     NetworkInterface.obj (.text:_ZN5Wf1215BgApi11BgApiDriverD0Ev)
                  000a1b20    0000001c     NetworkInterface.obj (.text:_ZN5Wf1215BgApi11BgApiDriverD1Ev)
                  000a1b3c    0000001c     NetworkInterface.obj (.text:_ZN5Wf1215BgApi11BgApiStatusD1Ev)
                  000a1b58    0000001c     FileDownlinkPortAc.obj (.text:_ZN9CubeRover21InputFileDownlinkPortD0Ev)
                  000a1b74    0000001c     CameraComponentAc.obj (.text:_ZN9CubeRover22OutputFileDownlinkPortD0Ev)
                  000a1b90    0000001c     CameraComponentAc.obj (.text:_ZN9CubeRover26InputCameraTakePicturePortD0Ev)
                  000a1bac    0000001c     CameraTakePicturePortAc.obj (.text:_ZN9CubeRover27OutputCameraTakePicturePortD0Ev)
                  000a1bc8    0000001c     WatchDogInterface.obj (.text:_ZN9CubeRover27WatchDogRxCallbackProcessorD0Ev)
                  000a1be4    0000001c     WatchDogInterface.obj (.text:_ZN9CubeRover30WatchDogInterfaceComponentImpl14TxCommandArrayD1Ev)
                  000a1c00    0000001c     FileDownlinkPortAc.obj (.text:_ZN9CubeRover46_GLOBAL__N__22_FileDownlinkPortAc_cpp_337b708822FileDownlinkPortBufferD0Ev)
                  000a1c1c    0000001c     NavigationComponentAc.obj (.text:_ZN9CubeRover49_GLOBAL__N__25_NavigationComponentAc_cpp_b9b8723430ComponentIpcSerializableBufferD0Ev)
                  000a1c38    0000001c     CameraTakePicturePortAc.obj (.text:_ZN9CubeRover51_GLOBAL__N__27_CameraTakePicturePortAc_cpp_d22da41c27CameraTakePicturePortBufferD0Ev)
                  000a1c54    0000001c     WatchDogInterfaceComponentAc.obj (.text:_ZN9CubeRover56_GLOBAL__N__32_WatchDogInterfaceComponentAc_cpp_843fad5030ComponentIpcSerializableBufferD0Ev)
                  000a1c70    0000001c     rtsv7R4_T_le_v3D16_eabi.lib : assert.c.obj (.text:_abort_msg)
                  000a1c8c    0000001c                                 : memory.c.obj (.text:free_list_remove)
                  000a1ca8    0000001c                                 : memccpy.c.obj (.text:memccpy)
                  000a1cc4    0000001a                                 : sprintf.c.obj (.text:_outs)
                  000a1cde    0000001a                                 : vsprintf.c.obj (.text:_outs)
                  000a1cf8    00000018     IMUComponent.obj (.text:_Z4fabsf)
                  000a1d10    00000018     IMUDataPortAc.obj (.text:_ZN14CubeRoverPorts41_GLOBAL__N__17_IMUDataPortAc_cpp_6437ed9e17IMUDataPortBuffer11getBuffAddrEv)
                  000a1d28    00000018     MotorDataPortAc.obj (.text:_ZN14CubeRoverPorts43_GLOBAL__N__19_MotorDataPortAc_cpp_bbdf208119MotorDataPortBuffer11getBuffAddrEv)
                  000a1d40    00000018     MotorCommandPortAc.obj (.text:_ZN14CubeRoverPorts46_GLOBAL__N__22_MotorCommandPortAc_cpp_9498a4ec22MotorCommandPortBuffer11getBuffAddrEv)
                  000a1d58    00000018     WatchdogResetRequestPortAc.obj (.text:_ZN14CubeRoverPorts54_GLOBAL__N__30_WatchdogResetRequestPortAc_cpp_0f54cacb30WatchdogResetRequestPortBuffer11getBuffAddrEv)
                  000a1d70    00000018     Topology.obj (.text:_ZN3Svc8TimerValD1Ev)
                  000a1d88    00000018     NetworkInterface.obj (.text:_ZN5Wf12111RadioStatus23updateLastHeartbeatTimeEv)
                  000a1da0    00000018     Wf121.obj (.text:_ZN5Wf12111Wf121Parser14GenericMessage11bgApiHeaderEv)
                  000a1db8    00000018     NetworkInterface.obj (.text:_ZN5Wf1215BgApi11BgApiDriver15cb_EventScannedEa)
                  000a1dd0    00000018     NetworkInterface.obj (.text:_ZN5Wf1215BgApi11BgApiDriver16cb_EventWifiIsOnEt)
                  000a1de8    00000018     NetworkInterface.obj (.text:_ZN5Wf1215BgApi11BgApiDriver17cb_CommandI2cReadEt)
                  000a1e00    00000018     NetworkInterface.obj (.text:_ZN5Wf1215BgApi11BgApiDriver17cb_CommandI2cStopEt)
                  000a1e18    00000018     NetworkInterface.obj (.text:_ZN5Wf1215BgApi11BgApiDriver17cb_CommandRtcInitEt)
                  000a1e30    00000018     NetworkInterface.obj (.text:_ZN5Wf1215BgApi11BgApiDriver17cb_CommandUdpBindEt)
                  000a1e48    00000018     NetworkInterface.obj (.text:_ZN5Wf1215BgApi11BgApiDriver17cb_EventSoftTimerEh)
                  000a1e60    00000018     NetworkInterface.obj (.text:_ZN5Wf1215BgApi11BgApiDriver17cb_EventWifiIsOffEt)
                  000a1e78    00000018     NetworkInterface.obj (.text:_ZN5Wf1215BgApi11BgApiDriver18cb_CommandI2cWriteEt)
                  000a1e90    00000018     NetworkInterface.obj (.text:_ZN5Wf1215BgApi11BgApiDriver18cb_CommandSetAlarmEt)
                  000a1ea8    00000018     NetworkInterface.obj (.text:_ZN5Wf1215BgApi11BgApiDriver18cb_CommandStopMDnsEt)
                  000a1ec0    00000018     NetworkInterface.obj (.text:_ZN5Wf1215BgApi11BgApiDriver18cb_EventLinkStatusEh)
                  000a1ed8    00000018     NetworkInterface.obj (.text:_ZN5Wf1215BgApi11BgApiDriver18cb_EventMDnsFailedEt)
                  000a1ef0    00000018     NetworkInterface.obj (.text:_ZN5Wf1215BgApi11BgApiDriver18cb_EventWpsStoppedENS0_17HardwareInterfaceE)
                  000a1f08    00000018     NetworkInterface.obj (.text:_ZN5Wf1215BgApi11BgApiDriver19cb_CommandStartMDnsEt)
                  000a1f20    00000018     NetworkInterface.obj (.text:_ZN5Wf1215BgApi11BgApiDriver19cb_EventMDnsStoppedEt)
                  000a1f38    00000018     NetworkInterface.obj (.text:_ZN5Wf1215BgApi11BgApiDriver20cb_CommandCloseRouteEt)
                  000a1f50    00000018     NetworkInterface.obj (.text:_ZN5Wf1215BgApi11BgApiDriver20cb_CommandReadIoPortEt)
                  000a1f68    00000018     NetworkInterface.obj (.text:_ZN5Wf1215BgApi11BgApiDriver20cb_CommandRtcSetTimeEt)
                  000a1f80    00000018     NetworkInterface.obj (.text:_ZN5Wf1215BgApi11BgApiDriver20cb_CommandTurnOnWifiEt)
                  000a1f98    00000018     NetworkInterface.obj (.text:_ZN5Wf1215BgApi11BgApiDriver20cb_EventConnectRetryENS0_17HardwareInterfaceE)
                  000a1fb0    00000018     NetworkInterface.obj (.text:_ZN5Wf1215BgApi11BgApiDriver20cb_EventWpsCompletedENS0_17HardwareInterfaceE)
                  000a1fc8    00000018     NetworkInterface.obj (.text:_ZN5Wf1215BgApi11BgApiDriver21cb_CommandApiResponseEt)
                  000a1fe0    00000018     NetworkInterface.obj (.text:_ZN5Wf1215BgApi11BgApiDriver21cb_CommandSetPasswordEh)
                  000a1ff8    00000018     NetworkInterface.obj (.text:_ZN5Wf1215BgApi11BgApiDriver21cb_CommandTurnOffWifiEt)
                  000a2010    00000018     NetworkInterface.obj (.text:_ZN5Wf1215BgApi11BgApiDriver21cb_CommandWriteIoPortEt)
                  000a2028    00000018     NetworkInterface.obj (.text:_ZN5Wf1215BgApi11BgApiDriver21cb_EventApModeStartedENS0_17HardwareInterfaceE)
                  000a2040    00000018     NetworkInterface.obj (.text:_ZN5Wf1215BgApi11BgApiDriver21cb_EventApModeStoppedENS0_17HardwareInterfaceE)
                  000a2058    00000018     NetworkInterface.obj (.text:_ZN5Wf1215BgApi11BgApiDriver22cb_CommandDnsConfigureEt)
                  000a2070    00000018     NetworkInterface.obj (.text:_ZN5Wf1215BgApi11BgApiDriver22cb_CommandSetDataRouteEt)
                  000a2088    00000018     NetworkInterface.obj (.text:_ZN5Wf1215BgApi11BgApiDriver22cb_CommandSetSoftTimerEt)
                  000a20a0    00000018     NetworkInterface.obj (.text:_ZN5Wf1215BgApi11BgApiDriver22cb_EventScanResultDropEPKh)
                  000a20b8    00000018     NetworkInterface.obj (.text:_ZN5Wf1215BgApi11BgApiDriver23cb_CommandAddServerPathEt)
                  000a20d0    00000018     NetworkInterface.obj (.text:_ZN5Wf1215BgApi11BgApiDriver23cb_CommandConfigureUartEt)
                  000a20e8    00000018     NetworkInterface.obj (.text:_ZN5Wf1215BgApi11BgApiDriver23cb_CommandDhcpConfigureEt)
                  000a2100    00000018     NetworkInterface.obj (.text:_ZN5Wf1215BgApi11BgApiDriver23cb_CommandEnableServersEt)
                  000a2118    00000018     NetworkInterface.obj (.text:_ZN5Wf1215BgApi11BgApiDriver23cb_CommandMulticastJoinEt)
                  000a2130    00000018     NetworkInterface.obj (.text:_ZN5Wf1215BgApi11BgApiDriver23cb_CommandOutputCompareEt)
                  000a2148    00000018     NetworkInterface.obj (.text:_ZN5Wf1215BgApi11BgApiDriver23cb_CommandSetApPasswordEh)
                  000a2160    00000018     NetworkInterface.obj (.text:_ZN5Wf1215BgApi11BgApiDriver23cb_CommandStartSsidScanEt)
                  000a2178    00000018     NetworkInterface.obj (.text:_ZN5Wf1215BgApi11BgApiDriver24cb_CommandConfigureTcpIpEt)
                  000a2190    00000018     NetworkInterface.obj (.text:_ZN5Wf1215BgApi11BgApiDriver24cb_CommandMulticastLeaveEt)
                  000a21a8    00000018     NetworkInterface.obj (.text:_ZN5Wf1215BgApi11BgApiDriver24cb_CommandRouteConnectedEh)
                  000a21c0    00000018     NetworkInterface.obj (.text:_ZN5Wf1215BgApi11BgApiDriver24cb_EventPowerSavingStateENS0_16PowerSavingStateE)
                  000a21d8    00000018     NetworkInterface.obj (.text:_ZN5Wf1215BgApi11BgApiDriver25cb_CommandSetDhcpHostNameEt)
                  000a21f0    00000018     NetworkInterface.obj (.text:_ZN5Wf1215BgApi11BgApiDriver25cb_CommandSetMdnsHostNameEt)
                  000a2208    00000018     NetworkInterface.obj (.text:_ZN5Wf1215BgApi11BgApiDriver25cb_CommandSetScanChannelsEt)
                  000a2220    00000018     NetworkInterface.obj (.text:_ZN5Wf1215BgApi11BgApiDriver26cb_CommandApiResponseFinshEt)
                  000a2238    00000018     NetworkInterface.obj (.text:_ZN5Wf1215BgApi11BgApiDriver26cb_CommandDnsSdStopServiceEt)
                  000a2250    00000018     NetworkInterface.obj (.text:_ZN5Wf1215BgApi11BgApiDriver26cb_CommandGetDnsHostByNameEt)
                  000a2268    00000018     NetworkInterface.obj (.text:_ZN5Wf1215BgApi11BgApiDriver26cb_CommandSetOperatingModeEt)
                  000a2280    00000018     NetworkInterface.obj (.text:_ZN5Wf1215BgApi11BgApiDriver26cb_CommandStopScanChannelsEt)
                  000a2298    00000018     NetworkInterface.obj (.text:_ZN5Wf1215BgApi11BgApiDriver26cb_EventApiRequestFinishedEj)
                  000a22b0    00000018     NetworkInterface.obj (.text:_ZN5Wf1215BgApi11BgApiDriver26cb_EventChangeNotificationEj)
                  000a22c8    00000018     NetworkInterface.obj (.text:_ZN5Wf1215BgApi11BgApiDriver27cb_CommandDhcpEnableRoutingEt)
                  000a22e0    00000018     NetworkInterface.obj (.text:_ZN5Wf1215BgApi11BgApiDriver27cb_CommandDnsSdStartServiceEt)
                  000a22f8    00000018     NetworkInterface.obj (.text:_ZN5Wf1215BgApi11BgApiDriver27cb_CommandStartScanChannelsEt)
                  000a2310    00000018     NetworkInterface.obj (.text:_ZN5Wf1215BgApi11BgApiDriver27cb_EventDnsSdServiceStartedEh)
                  000a2328    00000018     NetworkInterface.obj (.text:_ZN5Wf1215BgApi11BgApiDriver28cb_CommandDnsSdRemoveServiceEt)
                  000a2340    00000018     NetworkInterface.obj (.text:_ZN5Wf1215BgApi11BgApiDriver29cb_CommandDumpPersistentStoreEt)
                  000a2358    00000018     NetworkInterface.obj (.text:_ZN5Wf1215BgApi11BgApiDriver29cb_CommandLoadPersistentStoreEt)
                  000a2370    00000018     NetworkInterface.obj (.text:_ZN5Wf1215BgApi11BgApiDriver29cb_CommandSavePersistentStoreEt)
                  000a2388    00000018     NetworkInterface.obj (.text:_ZN5Wf1215BgApi11BgApiDriver29cb_CommandScanResultsSortRssiEt)
                  000a23a0    00000018     NetworkInterface.obj (.text:_ZN5Wf1215BgApi11BgApiDriver29cb_CommandSetPowerSavingStateEt)
                  000a23b8    00000018     NetworkInterface.obj (.text:_ZN5Wf1215BgApi11BgApiDriver30cb_CommandConfigureIoOpenDrainEt)
                  000a23d0    00000018     NetworkInterface.obj (.text:_ZN5Wf1215BgApi11BgApiDriver30cb_CommandErasePersistentStoreEt)
                  000a23e8    00000018     NetworkInterface.obj (.text:_ZN5Wf1215BgApi11BgApiDriver30cb_CommandGetUartConfigurationEt)
                  000a2400    00000018     NetworkInterface.obj (.text:_ZN5Wf1215BgApi11BgApiDriver31cb_CommandDefragPersistentStoreEt)
                  000a2418    00000018     NetworkInterface.obj (.text:_ZN5Wf1215BgApi11BgApiDriver33cb_CommandDnsSdAddServiceInstanceEt)
                  000a2430    00000018     NetworkInterface.obj (.text:_ZN5Wf1215BgApi11BgApiDriver33cb_CommandEraseAllPersistentStoreEt)
                  000a2448    00000018     NetworkInterface.obj (.text:_ZN5Wf1215BgApi11BgApiDriver33cb_EventPersistentStoreKeyChangedEt)
                  000a2460    00000018     NetworkInterface.obj (.text:_ZN5Wf1215BgApi11BgApiDriver34cb_CommandConfigureIoPortDirectionEt)
                  000a2478    00000018     NetworkInterface.obj (.text:_ZN5Wf1215BgApi11BgApiDriver34cb_CommandDnsSdAddServiceAttributeEt)
                  000a2490    00000018     NetworkInterface.obj (.text:_ZN5Wf1215BgApi11BgApiDriver36cb_CommandConfigureExternalInterruptEt)
                  000a24a8    00000018     NetworkInterface.obj (.text:_ZN5Wf1215BgApi11BgApiDriver37cb_CommandConfigureChangeNotificationEt)
                  000a24c0    00000018     FileDownlinkPortAc.obj (.text:_ZN9CubeRover46_GLOBAL__N__22_FileDownlinkPortAc_cpp_337b708822FileDownlinkPortBuffer11getBuffAddrEv)
                  000a24d8    00000018     NavigationComponentAc.obj (.text:_ZN9CubeRover49_GLOBAL__N__25_NavigationComponentAc_cpp_b9b8723430ComponentIpcSerializableBuffer11getBuffAddrEv)
                  000a24f0    00000018     CameraTakePicturePortAc.obj (.text:_ZN9CubeRover51_GLOBAL__N__27_CameraTakePicturePortAc_cpp_d22da41c27CameraTakePicturePortBuffer11getBuffAddrEv)
                  000a2508    00000018     WatchDogInterfaceComponentAc.obj (.text:_ZN9CubeRover56_GLOBAL__N__32_WatchDogInterfaceComponentAc_cpp_843fad5030ComponentIpcSerializableBuffer11getBuffAddrEv)
                  000a2520    00000018     IMUDataPortAc.obj (.text:_ZNK14CubeRoverPorts41_GLOBAL__N__17_IMUDataPortAc_cpp_6437ed9e17IMUDataPortBuffer11getBuffAddrEv)
                  000a2538    00000018     MotorDataPortAc.obj (.text:_ZNK14CubeRoverPorts43_GLOBAL__N__19_MotorDataPortAc_cpp_bbdf208119MotorDataPortBuffer11getBuffAddrEv)
                  000a2550    00000018     MotorCommandPortAc.obj (.text:_ZNK14CubeRoverPorts46_GLOBAL__N__22_MotorCommandPortAc_cpp_9498a4ec22MotorCommandPortBuffer11getBuffAddrEv)
                  000a2568    00000018     WatchdogResetRequestPortAc.obj (.text:_ZNK14CubeRoverPorts54_GLOBAL__N__30_WatchdogResetRequestPortAc_cpp_0f54cacb30WatchdogResetRequestPortBuffer11getBuffAddrEv)
                  000a2580    00000018     WatchDogMpsm.obj (.text:_ZNK40_GLOBAL__N__16_WatchDogMpsm_cpp_1353cebe15HeaderRingArray4sizeEv)
                  000a2598    00000018     FileDownlinkPortAc.obj (.text:_ZNK9CubeRover46_GLOBAL__N__22_FileDownlinkPortAc_cpp_337b708822FileDownlinkPortBuffer11getBuffAddrEv)
                  000a25b0    00000018     NavigationComponentAc.obj (.text:_ZNK9CubeRover49_GLOBAL__N__25_NavigationComponentAc_cpp_b9b8723430ComponentIpcSerializableBuffer11getBuffAddrEv)
                  000a25c8    00000018     CameraTakePicturePortAc.obj (.text:_ZNK9CubeRover51_GLOBAL__N__27_CameraTakePicturePortAc_cpp_d22da41c27CameraTakePicturePortBuffer11getBuffAddrEv)
                  000a25e0    00000018     WatchDogInterfaceComponentAc.obj (.text:_ZNK9CubeRover56_GLOBAL__N__32_WatchDogInterfaceComponentAc_cpp_843fad5030ComponentIpcSerializableBuffer11getBuffAddrEv)
                  000a25f8    00000018     rtsv7R4_T_le_v3D16_eabi.lib : snprintf.c.obj (.text:_outc)
                  000a2610    00000018                                 : vsnprintf.c.obj (.text:_outc)
                  000a2628    00000018                                 : strcmp.c.obj (.text:strcmp)
                  000a2640    00000016                                 : strchr.c.obj (.text:strchr)
                  000a2656    00000016                                 : strlen.c.obj (.text:strlen)
                  000a266c    00000014     IMUDataPortAc.obj (.text:_ZN14CubeRoverPorts16InputIMUDataPortD1Ev)
                  000a2680    00000014     IMUDataPortAc.obj (.text:_ZN14CubeRoverPorts17OutputIMUDataPortD1Ev)
                  000a2694    00000014     MotorDataPortAc.obj (.text:_ZN14CubeRoverPorts18InputMotorDataPortD1Ev)
                  000a26a8    00000014     MotorDataPortAc.obj (.text:_ZN14CubeRoverPorts19OutputMotorDataPortD1Ev)
                  000a26bc    00000014     MotorCommandPortAc.obj (.text:_ZN14CubeRoverPorts21InputMotorCommandPortD1Ev)
                  000a26d0    00000014     MotorCommandPortAc.obj (.text:_ZN14CubeRoverPorts22OutputMotorCommandPortD1Ev)
                  000a26e4    00000014     WatchdogResetRequestPortAc.obj (.text:_ZN14CubeRoverPorts29InputWatchdogResetRequestPortD1Ev)
                  000a26f8    00000014     WatchdogResetRequestPortAc.obj (.text:_ZN14CubeRoverPorts30OutputWatchdogResetRequestPortD1Ev)
                  000a270c    00000014     IMUDataPortAc.obj (.text:_ZN14CubeRoverPorts41_GLOBAL__N__17_IMUDataPortAc_cpp_6437ed9e17IMUDataPortBufferD1Ev)
                  000a2720    00000014     MotorDataPortAc.obj (.text:_ZN14CubeRoverPorts43_GLOBAL__N__19_MotorDataPortAc_cpp_bbdf208119MotorDataPortBufferD1Ev)
                  000a2734    00000014     MotorCommandPortAc.obj (.text:_ZN14CubeRoverPorts46_GLOBAL__N__22_MotorCommandPortAc_cpp_9498a4ec22MotorCommandPortBufferD1Ev)
                  000a2748    00000014     WatchdogResetRequestPortAc.obj (.text:_ZN14CubeRoverPorts54_GLOBAL__N__30_WatchdogResetRequestPortAc_cpp_0f54cacb30WatchdogResetRequestPortBufferD1Ev)
                  000a275c    00000014     CameraComponentAc.obj (.text:_ZN2Fw12InputCmdPortD1Ev)
                  000a2770    00000014     GroundInterfaceComponentAc.obj (.text:_ZN2Fw12InputComPortD1Ev)
                  000a2784    00000014     GroundInterfaceComponentAc.obj (.text:_ZN2Fw12InputLogPortD1Ev)
                  000a2798    00000014     libFwTlm.a : TlmPortAc.o (.text:_ZN2Fw12InputTlmPortD0Ev)
                  000a27ac    00000014     libFwTime.a : TimePortAc.o (.text:_ZN2Fw13InputTimePortD0Ev)
                  000a27c0    00000014     libSvcCmdDispatcher.a : CommandDispatcherComponentAc.o (.text:_ZN2Fw13OutputCmdPortD0Ev)
                  000a27d4    00000014     GroundInterfaceComponentAc.obj (.text:_ZN2Fw13OutputComPortD1Ev)
                  000a27e8    00000014     CameraComponentAc.obj (.text:_ZN2Fw13OutputLogPortD1Ev)
                  000a27fc    00000014     CameraComponentAc.obj (.text:_ZN2Fw13OutputTlmPortD1Ev)
                  000a2810    00000014     CameraComponentAc.obj (.text:_ZN2Fw14OutputTimePortD1Ev)
                  000a2824    00000014     libSvcCmdDispatcher.a : CommandDispatcherComponentAc.o (.text:_ZN2Fw15InputCmdRegPortD0Ev)
                  000a2838    00000014     libFwLog.a : LogTextPortAc.o (.text:_ZN2Fw16InputLogTextPortD0Ev)
                  000a284c    00000014     CameraComponentAc.obj (.text:_ZN2Fw16OutputCmdRegPortD1Ev)
                  000a2860    00000014     CameraComponentAc.obj (.text:_ZN2Fw17OutputLogTextPortD1Ev)
                  000a2874    00000014     GroundInterfaceComponentAc.obj (.text:_ZN2Fw19InputBufferSendPortD1Ev)
                  000a2888    00000014     libSvcCmdDispatcher.a : CommandDispatcherComponentAc.o (.text:_ZN2Fw20InputCmdResponsePortD0Ev)
                  000a289c    00000014     GroundInterfaceComponentAc.obj (.text:_ZN2Fw20OutputBufferSendPortD1Ev)
                  000a28b0    00000014     CameraComponentAc.obj (.text:_ZN2Fw21OutputCmdResponsePortD1Ev)
                  000a28c4    00000014     libFwComp.a : ActiveComponentBase.o (.text:_ZN2Fw37ActiveComponentExitSerializableBufferD0Ev)
                  000a28d8    00000014     libFwCmd.a : CmdPortAc.o (.text:_ZN2Fw37_GLOBAL__N__13_CmdPortAc_cpp_9d3e2db413CmdPortBufferD0Ev)
                  000a28ec    00000014     libFwCom.a : ComPortAc.o (.text:_ZN2Fw37_GLOBAL__N__13_ComPortAc_cpp_35684bd213ComPortBufferD0Ev)
                  000a2900    00000014     libFwLog.a : LogPortAc.o (.text:_ZN2Fw37_GLOBAL__N__13_LogPortAc_cpp_33be358a13LogPortBufferD0Ev)
                  000a2914    00000014     libFwTlm.a : TlmPortAc.o (.text:_ZN2Fw37_GLOBAL__N__13_TlmPortAc_cpp_5992219913TlmPortBufferD0Ev)
                  000a2928    00000014     libFwTime.a : TimePortAc.o (.text:_ZN2Fw38_GLOBAL__N__14_TimePortAc_cpp_e154eb8414TimePortBufferD0Ev)
                  000a293c    00000014     libFwCmd.a : CmdRegPortAc.o (.text:_ZN2Fw40_GLOBAL__N__16_CmdRegPortAc_cpp_22987e6f16CmdRegPortBufferD0Ev)
                  000a2950    00000014     libFwLog.a : LogTextPortAc.o (.text:_ZN2Fw41_GLOBAL__N__17_LogTextPortAc_cpp_dae56cfb17LogTextPortBufferD0Ev)
                  000a2964    00000014     libFwBuffer.a : BufferSendPortAc.o (.text:_ZN2Fw44_GLOBAL__N__20_BufferSendPortAc_cpp_c3bf741720BufferSendPortBufferD0Ev)
                  000a2978    00000014     libFwCmd.a : CmdResponsePortAc.o (.text:_ZN2Fw45_GLOBAL__N__21_CmdResponsePortAc_cpp_ade7c34621CmdResponsePortBufferD0Ev)
                  000a298c    00000014     Camera.obj (.text:_ZN2Fw6BufferD1Ev)
                  000a29a0    00000014     libDrvBlockDriver.a : BlockDriverComponentAc.o (.text:_ZN3Drv19InputDataBufferPortD0Ev)
                  000a29b4    00000014                         : BlockDriverComponentAc.o (.text:_ZN3Drv20OutputDataBufferPortD0Ev)
                  000a29c8    00000014     libDrvDataTypes.a : DataBufferPortAc.o (.text:_ZN3Drv44_GLOBAL__N__20_DataBufferPortAc_cpp_def37a2520DataBufferPortBufferD0Ev)
                  000a29dc    00000014     libDrvBlockDriver.a : BlockDriverComponentAc.o (.text:_ZN3Drv50_GLOBAL__N__26_BlockDriverComponentAc_cpp_ac3b9f6530ComponentIpcSerializableBufferD0Ev)
                  000a29f0    00000014     IMUComponentAc.obj (.text:_ZN3Svc13InputPingPortD1Ev)
                  000a2a04    00000014     libSvcActiveRateGroup.a : ActiveRateGroupComponentAc.o (.text:_ZN3Svc14InputCyclePortD0Ev)
                  000a2a18    00000014     IMUComponentAc.obj (.text:_ZN3Svc14InputSchedPortD1Ev)
                  000a2a2c    00000014     IMUComponentAc.obj (.text:_ZN3Svc14OutputPingPortD1Ev)
                  000a2a40    00000014     libDrvBlockDriver.a : BlockDriverComponentAc.o (.text:_ZN3Svc15OutputCyclePortD0Ev)
                  000a2a54    00000014     libSvcActiveRateGroup.a : ActiveRateGroupComponentAc.o (.text:_ZN3Svc15OutputSchedPortD0Ev)
                  000a2a68    00000014     WatchDogInterfaceComponentAc.obj (.text:_ZN3Svc17InputWatchDogPortD1Ev)
                  000a2a7c    00000014     libSvcWatchDog.a : WatchDogPortAc.o (.text:_ZN3Svc18OutputWatchDogPortD0Ev)
                  000a2a90    00000014     libSvcFatal.a : FatalEventPortAc.o (.text:_ZN3Svc19InputFatalEventPortD0Ev)
                  000a2aa4    00000014     libSvcActiveLogger.a : ActiveLoggerComponentAc.o (.text:_ZN3Svc20OutputFatalEventPortD0Ev)
                  000a2ab8    00000014     libSvcPing.a : PingPortAc.o (.text:_ZN3Svc38_GLOBAL__N__14_PingPortAc_cpp_70bc9b9c14PingPortBufferD0Ev)
                  000a2acc    00000014     libSvcCycle.a : CyclePortAc.o (.text:_ZN3Svc39_GLOBAL__N__15_CyclePortAc_cpp_738d314115CyclePortBufferD0Ev)
                  000a2ae0    00000014     libSvcSched.a : SchedPortAc.o (.text:_ZN3Svc39_GLOBAL__N__15_SchedPortAc_cpp_e9ea2acb15SchedPortBufferD0Ev)
                  000a2af4    00000014     libSvcWatchDog.a : WatchDogPortAc.o (.text:_ZN3Svc42_GLOBAL__N__18_WatchDogPortAc_cpp_af8886e518WatchDogPortBufferD0Ev)
                  000a2b08    00000014     libSvcFatal.a : FatalEventPortAc.o (.text:_ZN3Svc44_GLOBAL__N__20_FatalEventPortAc_cpp_dd6dfaa620FatalEventPortBufferD0Ev)
                  000a2b1c    00000014     libSvcTlmChan.a : TlmChanComponentAc.o (.text:_ZN3Svc46_GLOBAL__N__22_TlmChanComponentAc_cpp_8e78a87130ComponentIpcSerializableBufferD0Ev)
                  000a2b30    00000014     libSvcActiveLogger.a : ActiveLoggerComponentAc.o (.text:_ZN3Svc51_GLOBAL__N__27_ActiveLoggerComponentAc_cpp_980eb92130ComponentIpcSerializableBufferD0Ev)
                  000a2b44    00000014     libSvcActiveRateGroup.a : ActiveRateGroupComponentAc.o (.text:_ZN3Svc54_GLOBAL__N__30_ActiveRateGroupComponentAc_cpp_d117e47830ComponentIpcSerializableBufferD0Ev)
                  000a2b58    00000014     libSvcCmdDispatcher.a : CommandDispatcherComponentAc.o (.text:_ZN3Svc56_GLOBAL__N__32_CommandDispatcherComponentAc_cpp_5537c58630ComponentIpcSerializableBufferD0Ev)
                  000a2b6c    00000014     Wf121DirectMessage.obj (.text:_ZN5Wf12113DirectMessage19DirectMessageDriver16cb_dm_NowInStateENS0_12RadioSwStateE)
                  000a2b80    00000014     Wf121DirectMessage.obj (.text:_ZN5Wf12113DirectMessage19DirectMessageDriver21cb_dm_InterlockUpdateENS0_23RadioUdpInterlockStatusE)
                  000a2b94    00000014     Wf121DirectMessage.obj (.text:_ZN5Wf12113DirectMessage19DirectMessageDriver22cb_dm_NowDoingActivityENS0_15RadioSwActivityE)
                  000a2ba8    00000014     NetworkManager.obj (.text:_ZN5Wf12120ProtectedRadioStatus36needHelpCriticalCommsFailureOccurredEv)
                  000a2bbc    00000014     NetworkInterface.obj (.text:_ZN5Wf12123UdpTxCommsStatusManagerD1Ev)
                  000a2bd0    00000014     NetworkInterface.obj (.text:_ZN5Wf1215BgApi11BgApiDriver16cb_EventRtcAlarmEv)
                  000a2be4    00000014     NetworkInterface.obj (.text:_ZN5Wf1215BgApi11BgApiDriver19cb_EventMDnsStartedEv)
                  000a2bf8    00000014     NetworkInterface.obj (.text:_ZN5Wf1215BgApi11BgApiDriver20cb_CommandSyncSystemEv)
                  000a2c0c    00000014     NetworkInterface.obj (.text:_ZN5Wf1215BgApi11BgApiDriver21cb_CommandHelloSystemEv)
                  000a2c20    00000014     NetworkInterface.obj (.text:_ZN5Wf1215BgApi11BgApiDriver23cb_EventLowVoltageFlashEv)
                  000a2c34    00000014     NetworkInterface.obj (.text:_ZN5Wf1215BgApi11BgApiDriver24cb_EventScanSortFinishedEv)
                  000a2c48    00000014     FileDownlinkPortAc.obj (.text:_ZN9CubeRover21InputFileDownlinkPortD1Ev)
                  000a2c5c    00000014     CameraComponentAc.obj (.text:_ZN9CubeRover22OutputFileDownlinkPortD1Ev)
                  000a2c70    00000014     CameraComponentAc.obj (.text:_ZN9CubeRover26InputCameraTakePicturePortD1Ev)
                  000a2c84    00000014     CameraTakePicturePortAc.obj (.text:_ZN9CubeRover27OutputCameraTakePicturePortD1Ev)
                  000a2c98    00000014     FileDownlinkPortAc.obj (.text:_ZN9CubeRover46_GLOBAL__N__22_FileDownlinkPortAc_cpp_337b708822FileDownlinkPortBufferD1Ev)
                  000a2cac    00000014     NavigationComponentAc.obj (.text:_ZN9CubeRover49_GLOBAL__N__25_NavigationComponentAc_cpp_b9b8723430ComponentIpcSerializableBufferD1Ev)
                  000a2cc0    00000014     CameraTakePicturePortAc.obj (.text:_ZN9CubeRover51_GLOBAL__N__27_CameraTakePicturePortAc_cpp_d22da41c27CameraTakePicturePortBufferD1Ev)
                  000a2cd4    00000014     WatchDogInterfaceComponentAc.obj (.text:_ZN9CubeRover56_GLOBAL__N__32_WatchDogInterfaceComponentAc_cpp_843fad5030ComponentIpcSerializableBufferD1Ev)
                  000a2ce8    00000014     Camera.obj (.text:_ZN9S25fl512lD1Ev)
                  000a2cfc    00000014     IMUDataPortAc.obj (.text:_ZNK14CubeRoverPorts41_GLOBAL__N__17_IMUDataPortAc_cpp_6437ed9e17IMUDataPortBuffer15getBuffCapacityEv)
                  000a2d10    00000014     MotorDataPortAc.obj (.text:_ZNK14CubeRoverPorts43_GLOBAL__N__19_MotorDataPortAc_cpp_bbdf208119MotorDataPortBuffer15getBuffCapacityEv)
                  000a2d24    00000014     MotorCommandPortAc.obj (.text:_ZNK14CubeRoverPorts46_GLOBAL__N__22_MotorCommandPortAc_cpp_9498a4ec22MotorCommandPortBuffer15getBuffCapacityEv)
                  000a2d38    00000014     WatchdogResetRequestPortAc.obj (.text:_ZNK14CubeRoverPorts54_GLOBAL__N__30_WatchdogResetRequestPortAc_cpp_0f54cacb30WatchdogResetRequestPortBuffer15getBuffCapacityEv)
                  000a2d4c    00000014     FileDownlinkPortAc.obj (.text:_ZNK9CubeRover46_GLOBAL__N__22_FileDownlinkPortAc_cpp_337b708822FileDownlinkPortBuffer15getBuffCapacityEv)
                  000a2d60    00000014     NavigationComponentAc.obj (.text:_ZNK9CubeRover49_GLOBAL__N__25_NavigationComponentAc_cpp_b9b8723430ComponentIpcSerializableBuffer15getBuffCapacityEv)
                  000a2d74    00000014     CameraTakePicturePortAc.obj (.text:_ZNK9CubeRover51_GLOBAL__N__27_CameraTakePicturePortAc_cpp_d22da41c27CameraTakePicturePortBuffer15getBuffCapacityEv)
                  000a2d88    00000014     WatchDogInterfaceComponentAc.obj (.text:_ZNK9CubeRover56_GLOBAL__N__32_WatchDogInterfaceComponentAc_cpp_843fad5030ComponentIpcSerializableBuffer15getBuffCapacityEv)
                  000a2d9c    00000014     rtsv7R4_T_le_v3D16_eabi.lib : strcpy.c.obj (.text:strcpy)
                  000a2db0    00000012                                 : wcslen.c.obj (.text:wcslen)
                  000a2dc2    00000002     --HOLE-- [fill = 0]
                  000a2dc4    00000010     NetworkInterface.obj (.text:_ZN5Wf12111RadioStatusC2Ev)
                  000a2dd4    00000010     NetworkInterface.obj (.text:_ZN5Wf12111RadioStatusD1Ev)
                  000a2de4    00000010     NetworkInterface.obj (.text:_ZN5Wf12111RadioStatusD2Ev)
                  000a2df4    00000010     Wf121.obj (.text:_ZN5Wf12111Wf121Serial12ReadyForDataEv)
                  000a2e04    00000010     Main.obj (.text:_ZN5Wf12111Wf121Serial15NotReadyForDataEv)
                  000a2e14    00000010     NetworkInterface.obj (.text:_ZN5Wf12118Wf121TxTaskManagerC2Ev)
                  000a2e24    00000010     NetworkInterface.obj (.text:_ZN5Wf12118Wf121TxTaskManagerD1Ev)
                  000a2e34    00000010     NetworkInterface.obj (.text:_ZN5Wf12118Wf121TxTaskManagerD2Ev)
                  000a2e44    00000010     Wf121.obj (.text:_ZN5Wf12124Wf121RxCallbackProcessorC2Ev)
                  000a2e54    00000010     Wf121.obj (.text:_ZN5Wf12124Wf121RxCallbackProcessorD1Ev)
                  000a2e64    00000010     Wf121.obj (.text:_ZN5Wf12124Wf121RxCallbackProcessorD2Ev)
                  000a2e74    00000010     NetworkInterface.obj (.text:_ZN5Wf1215BgApi11BgApiDriverD2Ev)
                  000a2e84    00000010     WatchDogInterface.obj (.text:_ZN9CubeRover27WatchDogRxCallbackProcessorC2Ev)
                  000a2e94    00000010     WatchDogInterface.obj (.text:_ZN9CubeRover27WatchDogRxCallbackProcessorD1Ev)
                  000a2ea4    00000010     WatchDogInterface.obj (.text:_ZN9CubeRover27WatchDogRxCallbackProcessorD2Ev)
                  000a2eb4    0000000e     rtsv7R4_T_le_v3D16_eabi.lib : typeinfo.c.obj (.text:_ZN10__cxxabiv117__class_type_infoD0Ev)
                  000a2ec2    0000000e                                 : typeinfo.c.obj (.text:_ZN10__cxxabiv120__si_class_type_infoD0Ev)
                  000a2ed0    0000000e                                 : typeinfo.c.obj (.text:_ZN10__cxxabiv121__vmi_class_type_infoD0Ev)
                  000a2ede    0000000e                                 : copy_decompress_none.c.obj (.text:decompress:none:__TI_decompress_none)
                  000a2eec    0000000c     NetworkManager.obj (.text:_ZN5Wf1219Timestamp9getTimeMsEv)
                  000a2ef8    0000000c     rtsv7R4_T_le_v3D16_eabi.lib : new.cpp.obj (.text:_ZSt15get_new_handlerv)
                  000a2f04    0000000c                                 : dtor_list.c.obj (.text:__cxa_finalize)
                  000a2f10    0000000c                                 : guard.c.obj (.text:__cxa_guard_acquire)
                  000a2f1c    0000000c                                 : copy_zero_init.c.obj (.text:decompress:ZI:__TI_zero_init)
                  000a2f28    0000000a                                 : guard.c.obj (.text:__cxa_guard_release)
                  000a2f32    0000000a                                 : sprintf.c.obj (.text:_outc)
                  000a2f3c    0000000a                                 : vsprintf.c.obj (.text:_outc)
                  000a2f46    00000002     --HOLE-- [fill = 0]
                  000a2f48    00000008     libFwTypes.a : Serializable.o (.text:_ZN2Fw23ExternalSerializeBufferD0Ev)
                  000a2f50    00000008     libFwComp.a : ActiveComponentBase.o (.text:_ZN2Fw37ActiveComponentExitSerializableBuffer11getBuffAddrEv)
                  000a2f58    00000008     libFwCmd.a : CmdPortAc.o (.text:_ZN2Fw37_GLOBAL__N__13_CmdPortAc_cpp_9d3e2db413CmdPortBuffer11getBuffAddrEv)
                  000a2f60    00000008     libFwCom.a : ComPortAc.o (.text:_ZN2Fw37_GLOBAL__N__13_ComPortAc_cpp_35684bd213ComPortBuffer11getBuffAddrEv)
                  000a2f68    00000008     libFwLog.a : LogPortAc.o (.text:_ZN2Fw37_GLOBAL__N__13_LogPortAc_cpp_33be358a13LogPortBuffer11getBuffAddrEv)
                  000a2f70    00000008     libFwTlm.a : TlmPortAc.o (.text:_ZN2Fw37_GLOBAL__N__13_TlmPortAc_cpp_5992219913TlmPortBuffer11getBuffAddrEv)
                  000a2f78    00000008     libFwTime.a : TimePortAc.o (.text:_ZN2Fw38_GLOBAL__N__14_TimePortAc_cpp_e154eb8414TimePortBuffer11getBuffAddrEv)
                  000a2f80    00000008     libFwCmd.a : CmdRegPortAc.o (.text:_ZN2Fw40_GLOBAL__N__16_CmdRegPortAc_cpp_22987e6f16CmdRegPortBuffer11getBuffAddrEv)
                  000a2f88    00000008     libFwLog.a : LogTextPortAc.o (.text:_ZN2Fw41_GLOBAL__N__17_LogTextPortAc_cpp_dae56cfb17LogTextPortBuffer11getBuffAddrEv)
                  000a2f90    00000008     libFwBuffer.a : BufferSendPortAc.o (.text:_ZN2Fw44_GLOBAL__N__20_BufferSendPortAc_cpp_c3bf741720BufferSendPortBuffer11getBuffAddrEv)
                  000a2f98    00000008     libFwCmd.a : CmdResponsePortAc.o (.text:_ZN2Fw45_GLOBAL__N__21_CmdResponsePortAc_cpp_ade7c34621CmdResponsePortBuffer11getBuffAddrEv)
                  000a2fa0    00000008     libOs.a : QueueString.o (.text:_ZN2Os11QueueString11deserializeERN2Fw19SerializeBufferBaseE)
                  000a2fa8    00000008     libDrvDataTypes.a : DataBufferPortAc.o (.text:_ZN3Drv44_GLOBAL__N__20_DataBufferPortAc_cpp_def37a2520DataBufferPortBuffer11getBuffAddrEv)
                  000a2fb0    00000008     libDrvBlockDriver.a : BlockDriverComponentAc.o (.text:_ZN3Drv50_GLOBAL__N__26_BlockDriverComponentAc_cpp_ac3b9f6530ComponentIpcSerializableBuffer11getBuffAddrEv)
                  000a2fb8    00000008     libSvcPing.a : PingPortAc.o (.text:_ZN3Svc38_GLOBAL__N__14_PingPortAc_cpp_70bc9b9c14PingPortBuffer11getBuffAddrEv)
                  000a2fc0    00000008     libSvcCycle.a : CyclePortAc.o (.text:_ZN3Svc39_GLOBAL__N__15_CyclePortAc_cpp_738d314115CyclePortBuffer11getBuffAddrEv)
                  000a2fc8    00000008     libSvcSched.a : SchedPortAc.o (.text:_ZN3Svc39_GLOBAL__N__15_SchedPortAc_cpp_e9ea2acb15SchedPortBuffer11getBuffAddrEv)
                  000a2fd0    00000008     libSvcWatchDog.a : WatchDogPortAc.o (.text:_ZN3Svc42_GLOBAL__N__18_WatchDogPortAc_cpp_af8886e518WatchDogPortBuffer11getBuffAddrEv)
                  000a2fd8    00000008     libSvcFatal.a : FatalEventPortAc.o (.text:_ZN3Svc44_GLOBAL__N__20_FatalEventPortAc_cpp_dd6dfaa620FatalEventPortBuffer11getBuffAddrEv)
                  000a2fe0    00000008     libSvcTlmChan.a : TlmChanComponentAc.o (.text:_ZN3Svc46_GLOBAL__N__22_TlmChanComponentAc_cpp_8e78a87130ComponentIpcSerializableBuffer11getBuffAddrEv)
                  000a2fe8    00000008     libSvcActiveLogger.a : ActiveLoggerComponentAc.o (.text:_ZN3Svc51_GLOBAL__N__27_ActiveLoggerComponentAc_cpp_980eb92130ComponentIpcSerializableBuffer11getBuffAddrEv)
                  000a2ff0    00000008     libSvcActiveRateGroup.a : ActiveRateGroupComponentAc.o (.text:_ZN3Svc54_GLOBAL__N__30_ActiveRateGroupComponentAc_cpp_d117e47830ComponentIpcSerializableBuffer11getBuffAddrEv)
                  000a2ff8    00000008     libSvcCmdDispatcher.a : CommandDispatcherComponentAc.o (.text:_ZN3Svc56_GLOBAL__N__32_CommandDispatcherComponentAc_cpp_5537c58630ComponentIpcSerializableBuffer11getBuffAddrEv)
                  000a3000    00000008     libFwComp.a : ActiveComponentBase.o (.text:_ZNK2Fw37ActiveComponentExitSerializableBuffer11getBuffAddrEv)
                  000a3008    00000008                 : ActiveComponentBase.o (.text:_ZNK2Fw37ActiveComponentExitSerializableBuffer15getBuffCapacityEv)
                  000a3010    00000008     libFwCmd.a : CmdPortAc.o (.text:_ZNK2Fw37_GLOBAL__N__13_CmdPortAc_cpp_9d3e2db413CmdPortBuffer11getBuffAddrEv)
                  000a3018    00000008                : CmdPortAc.o (.text:_ZNK2Fw37_GLOBAL__N__13_CmdPortAc_cpp_9d3e2db413CmdPortBuffer15getBuffCapacityEv)
                  000a3020    00000008     libFwCom.a : ComPortAc.o (.text:_ZNK2Fw37_GLOBAL__N__13_ComPortAc_cpp_35684bd213ComPortBuffer11getBuffAddrEv)
                  000a3028    00000008                : ComPortAc.o (.text:_ZNK2Fw37_GLOBAL__N__13_ComPortAc_cpp_35684bd213ComPortBuffer15getBuffCapacityEv)
                  000a3030    00000008     libFwLog.a : LogPortAc.o (.text:_ZNK2Fw37_GLOBAL__N__13_LogPortAc_cpp_33be358a13LogPortBuffer11getBuffAddrEv)
                  000a3038    00000008                : LogPortAc.o (.text:_ZNK2Fw37_GLOBAL__N__13_LogPortAc_cpp_33be358a13LogPortBuffer15getBuffCapacityEv)
                  000a3040    00000008     libFwTlm.a : TlmPortAc.o (.text:_ZNK2Fw37_GLOBAL__N__13_TlmPortAc_cpp_5992219913TlmPortBuffer11getBuffAddrEv)
                  000a3048    00000008                : TlmPortAc.o (.text:_ZNK2Fw37_GLOBAL__N__13_TlmPortAc_cpp_5992219913TlmPortBuffer15getBuffCapacityEv)
                  000a3050    00000008     libFwTime.a : TimePortAc.o (.text:_ZNK2Fw38_GLOBAL__N__14_TimePortAc_cpp_e154eb8414TimePortBuffer11getBuffAddrEv)
                  000a3058    00000008                 : TimePortAc.o (.text:_ZNK2Fw38_GLOBAL__N__14_TimePortAc_cpp_e154eb8414TimePortBuffer15getBuffCapacityEv)
                  000a3060    00000008     libFwCmd.a : CmdRegPortAc.o (.text:_ZNK2Fw40_GLOBAL__N__16_CmdRegPortAc_cpp_22987e6f16CmdRegPortBuffer11getBuffAddrEv)
                  000a3068    00000008                : CmdRegPortAc.o (.text:_ZNK2Fw40_GLOBAL__N__16_CmdRegPortAc_cpp_22987e6f16CmdRegPortBuffer15getBuffCapacityEv)
                  000a3070    00000008     libFwLog.a : LogTextPortAc.o (.text:_ZNK2Fw41_GLOBAL__N__17_LogTextPortAc_cpp_dae56cfb17LogTextPortBuffer11getBuffAddrEv)
                  000a3078    00000008                : LogTextPortAc.o (.text:_ZNK2Fw41_GLOBAL__N__17_LogTextPortAc_cpp_dae56cfb17LogTextPortBuffer15getBuffCapacityEv)
                  000a3080    00000008     libFwBuffer.a : BufferSendPortAc.o (.text:_ZNK2Fw44_GLOBAL__N__20_BufferSendPortAc_cpp_c3bf741720BufferSendPortBuffer11getBuffAddrEv)
                  000a3088    00000008                   : BufferSendPortAc.o (.text:_ZNK2Fw44_GLOBAL__N__20_BufferSendPortAc_cpp_c3bf741720BufferSendPortBuffer15getBuffCapacityEv)
                  000a3090    00000008     libFwCmd.a : CmdResponsePortAc.o (.text:_ZNK2Fw45_GLOBAL__N__21_CmdResponsePortAc_cpp_ade7c34621CmdResponsePortBuffer11getBuffAddrEv)
                  000a3098    00000008                : CmdResponsePortAc.o (.text:_ZNK2Fw45_GLOBAL__N__21_CmdResponsePortAc_cpp_ade7c34621CmdResponsePortBuffer15getBuffCapacityEv)
                  000a30a0    00000008     libOs.a : QueueString.o (.text:_ZNK2Os11QueueString9serializeERN2Fw19SerializeBufferBaseE)
                  000a30a8    00000008     libDrvDataTypes.a : DataBufferPortAc.o (.text:_ZNK3Drv44_GLOBAL__N__20_DataBufferPortAc_cpp_def37a2520DataBufferPortBuffer11getBuffAddrEv)
                  000a30b0    00000008                       : DataBufferPortAc.o (.text:_ZNK3Drv44_GLOBAL__N__20_DataBufferPortAc_cpp_def37a2520DataBufferPortBuffer15getBuffCapacityEv)
                  000a30b8    00000008     libDrvBlockDriver.a : BlockDriverComponentAc.o (.text:_ZNK3Drv50_GLOBAL__N__26_BlockDriverComponentAc_cpp_ac3b9f6530ComponentIpcSerializableBuffer11getBuffAddrEv)
                  000a30c0    00000008                         : BlockDriverComponentAc.o (.text:_ZNK3Drv50_GLOBAL__N__26_BlockDriverComponentAc_cpp_ac3b9f6530ComponentIpcSerializableBuffer15getBuffCapacityEv)
                  000a30c8    00000008     libSvcPing.a : PingPortAc.o (.text:_ZNK3Svc38_GLOBAL__N__14_PingPortAc_cpp_70bc9b9c14PingPortBuffer11getBuffAddrEv)
                  000a30d0    00000008                  : PingPortAc.o (.text:_ZNK3Svc38_GLOBAL__N__14_PingPortAc_cpp_70bc9b9c14PingPortBuffer15getBuffCapacityEv)
                  000a30d8    00000008     libSvcCycle.a : CyclePortAc.o (.text:_ZNK3Svc39_GLOBAL__N__15_CyclePortAc_cpp_738d314115CyclePortBuffer11getBuffAddrEv)
                  000a30e0    00000008                   : CyclePortAc.o (.text:_ZNK3Svc39_GLOBAL__N__15_CyclePortAc_cpp_738d314115CyclePortBuffer15getBuffCapacityEv)
                  000a30e8    00000008     libSvcSched.a : SchedPortAc.o (.text:_ZNK3Svc39_GLOBAL__N__15_SchedPortAc_cpp_e9ea2acb15SchedPortBuffer11getBuffAddrEv)
                  000a30f0    00000008                   : SchedPortAc.o (.text:_ZNK3Svc39_GLOBAL__N__15_SchedPortAc_cpp_e9ea2acb15SchedPortBuffer15getBuffCapacityEv)
                  000a30f8    00000008     libSvcWatchDog.a : WatchDogPortAc.o (.text:_ZNK3Svc42_GLOBAL__N__18_WatchDogPortAc_cpp_af8886e518WatchDogPortBuffer11getBuffAddrEv)
                  000a3100    00000008                      : WatchDogPortAc.o (.text:_ZNK3Svc42_GLOBAL__N__18_WatchDogPortAc_cpp_af8886e518WatchDogPortBuffer15getBuffCapacityEv)
                  000a3108    00000008     libSvcFatal.a : FatalEventPortAc.o (.text:_ZNK3Svc44_GLOBAL__N__20_FatalEventPortAc_cpp_dd6dfaa620FatalEventPortBuffer11getBuffAddrEv)
                  000a3110    00000008                   : FatalEventPortAc.o (.text:_ZNK3Svc44_GLOBAL__N__20_FatalEventPortAc_cpp_dd6dfaa620FatalEventPortBuffer15getBuffCapacityEv)
                  000a3118    00000008     libSvcTlmChan.a : TlmChanComponentAc.o (.text:_ZNK3Svc46_GLOBAL__N__22_TlmChanComponentAc_cpp_8e78a87130ComponentIpcSerializableBuffer11getBuffAddrEv)
                  000a3120    00000008                     : TlmChanComponentAc.o (.text:_ZNK3Svc46_GLOBAL__N__22_TlmChanComponentAc_cpp_8e78a87130ComponentIpcSerializableBuffer15getBuffCapacityEv)
                  000a3128    00000008     libSvcActiveLogger.a : ActiveLoggerComponentAc.o (.text:_ZNK3Svc51_GLOBAL__N__27_ActiveLoggerComponentAc_cpp_980eb92130ComponentIpcSerializableBuffer11getBuffAddrEv)
                  000a3130    00000008                          : ActiveLoggerComponentAc.o (.text:_ZNK3Svc51_GLOBAL__N__27_ActiveLoggerComponentAc_cpp_980eb92130ComponentIpcSerializableBuffer15getBuffCapacityEv)
                  000a3138    00000008     libSvcActiveRateGroup.a : ActiveRateGroupComponentAc.o (.text:_ZNK3Svc54_GLOBAL__N__30_ActiveRateGroupComponentAc_cpp_d117e47830ComponentIpcSerializableBuffer11getBuffAddrEv)
                  000a3140    00000008                             : ActiveRateGroupComponentAc.o (.text:_ZNK3Svc54_GLOBAL__N__30_ActiveRateGroupComponentAc_cpp_d117e47830ComponentIpcSerializableBuffer15getBuffCapacityEv)
                  000a3148    00000008     libSvcCmdDispatcher.a : CommandDispatcherComponentAc.o (.text:_ZNK3Svc56_GLOBAL__N__32_CommandDispatcherComponentAc_cpp_5537c58630ComponentIpcSerializableBuffer11getBuffAddrEv)
                  000a3150    00000008                           : CommandDispatcherComponentAc.o (.text:_ZNK3Svc56_GLOBAL__N__32_CommandDispatcherComponentAc_cpp_5537c58630ComponentIpcSerializableBuffer15getBuffCapacityEv)
                  000a3158    00000008     rtsv7R4_T_le_v3D16_eabi.lib : new.cpp.obj (.text:_ZdlPv)
                  000a3160    00000008                                 : errno.c.obj (.text:__aeabi_errno_addr)
                  000a3168    00000008                                 : memory.c.obj (.text:malloc)
                  000a3170    00000006                                 : dtor_list.c.obj (.text:__cxa_ia64_exit)
                  000a3176    00000006                                 : pure_virt.c.obj (.text:__cxa_pure_virtual)
                  000a317c    00000004                                 : typeinfo.c.obj (.text:_ZN10__cxxabiv117__class_type_infoD1Ev)
                  000a3180    00000004                                 : typeinfo.c.obj (.text:_ZN10__cxxabiv120__si_class_type_infoD1Ev)
                  000a3184    00000004                                 : typeinfo.c.obj (.text:_ZN10__cxxabiv121__vmi_class_type_infoD1Ev)
                  000a3188    00000004     libFwTlm.a : TlmPortAc.o (.text:_ZN2Fw12InputTlmPortD1Ev)
                  000a318c    00000004     libFwTime.a : TimePortAc.o (.text:_ZN2Fw13InputTimePortD1Ev)
                  000a3190    00000004     libSvcCmdDispatcher.a : CommandDispatcherComponentAc.o (.text:_ZN2Fw13OutputCmdPortD1Ev)
                  000a3194    00000004                           : CommandDispatcherComponentAc.o (.text:_ZN2Fw15InputCmdRegPortD1Ev)
                  000a3198    00000004     libFwLog.a : LogTextPortAc.o (.text:_ZN2Fw16InputLogTextPortD1Ev)
                  000a319c    00000004     libSvcCmdDispatcher.a : CommandDispatcherComponentAc.o (.text:_ZN2Fw20InputCmdResponsePortD1Ev)
                  000a31a0    00000004     libFwTypes.a : Serializable.o (.text:_ZN2Fw23ExternalSerializeBufferD1Ev)
                  000a31a4    00000004     libFwComp.a : ActiveComponentBase.o (.text:_ZN2Fw37ActiveComponentExitSerializableBufferD1Ev)
                  000a31a8    00000004     libFwCmd.a : CmdPortAc.o (.text:_ZN2Fw37_GLOBAL__N__13_CmdPortAc_cpp_9d3e2db413CmdPortBufferD1Ev)
                  000a31ac    00000004     libFwCom.a : ComPortAc.o (.text:_ZN2Fw37_GLOBAL__N__13_ComPortAc_cpp_35684bd213ComPortBufferD1Ev)
                  000a31b0    00000004     libFwLog.a : LogPortAc.o (.text:_ZN2Fw37_GLOBAL__N__13_LogPortAc_cpp_33be358a13LogPortBufferD1Ev)
                  000a31b4    00000004     libFwTlm.a : TlmPortAc.o (.text:_ZN2Fw37_GLOBAL__N__13_TlmPortAc_cpp_5992219913TlmPortBufferD1Ev)
                  000a31b8    00000004     libFwTime.a : TimePortAc.o (.text:_ZN2Fw38_GLOBAL__N__14_TimePortAc_cpp_e154eb8414TimePortBufferD1Ev)
                  000a31bc    00000004     libFwCmd.a : CmdRegPortAc.o (.text:_ZN2Fw40_GLOBAL__N__16_CmdRegPortAc_cpp_22987e6f16CmdRegPortBufferD1Ev)
                  000a31c0    00000004     libFwLog.a : LogTextPortAc.o (.text:_ZN2Fw41_GLOBAL__N__17_LogTextPortAc_cpp_dae56cfb17LogTextPortBufferD1Ev)
                  000a31c4    00000004     libFwBuffer.a : BufferSendPortAc.o (.text:_ZN2Fw44_GLOBAL__N__20_BufferSendPortAc_cpp_c3bf741720BufferSendPortBufferD1Ev)
                  000a31c8    00000004     libFwCmd.a : CmdResponsePortAc.o (.text:_ZN2Fw45_GLOBAL__N__21_CmdResponsePortAc_cpp_ade7c34621CmdResponsePortBufferD1Ev)
                  000a31cc    00000004     libDrvBlockDriver.a : BlockDriverComponentAc.o (.text:_ZN3Drv19InputDataBufferPortD1Ev)
                  000a31d0    00000004                         : BlockDriverComponentAc.o (.text:_ZN3Drv20OutputDataBufferPortD1Ev)
                  000a31d4    00000004     libDrvDataTypes.a : DataBufferPortAc.o (.text:_ZN3Drv44_GLOBAL__N__20_DataBufferPortAc_cpp_def37a2520DataBufferPortBufferD1Ev)
                  000a31d8    00000004     libDrvBlockDriver.a : BlockDriverComponentAc.o (.text:_ZN3Drv50_GLOBAL__N__26_BlockDriverComponentAc_cpp_ac3b9f6530ComponentIpcSerializableBufferD1Ev)
                  000a31dc    00000004     libSvcActiveRateGroup.a : ActiveRateGroupComponentAc.o (.text:_ZN3Svc14InputCyclePortD1Ev)
                  000a31e0    00000004     libDrvBlockDriver.a : BlockDriverComponentAc.o (.text:_ZN3Svc15OutputCyclePortD1Ev)
                  000a31e4    00000004     libSvcActiveRateGroup.a : ActiveRateGroupComponentAc.o (.text:_ZN3Svc15OutputSchedPortD1Ev)
                  000a31e8    00000004     libSvcWatchDog.a : WatchDogPortAc.o (.text:_ZN3Svc18OutputWatchDogPortD1Ev)
                  000a31ec    00000004     libSvcFatal.a : FatalEventPortAc.o (.text:_ZN3Svc19InputFatalEventPortD1Ev)
                  000a31f0    00000004     libSvcActiveLogger.a : ActiveLoggerComponentAc.o (.text:_ZN3Svc20OutputFatalEventPortD1Ev)
                  000a31f4    00000004     libSvcPing.a : PingPortAc.o (.text:_ZN3Svc38_GLOBAL__N__14_PingPortAc_cpp_70bc9b9c14PingPortBufferD1Ev)
                  000a31f8    00000004     libSvcCycle.a : CyclePortAc.o (.text:_ZN3Svc39_GLOBAL__N__15_CyclePortAc_cpp_738d314115CyclePortBufferD1Ev)
                  000a31fc    00000004     libSvcSched.a : SchedPortAc.o (.text:_ZN3Svc39_GLOBAL__N__15_SchedPortAc_cpp_e9ea2acb15SchedPortBufferD1Ev)
                  000a3200    00000004     libSvcWatchDog.a : WatchDogPortAc.o (.text:_ZN3Svc42_GLOBAL__N__18_WatchDogPortAc_cpp_af8886e518WatchDogPortBufferD1Ev)
                  000a3204    00000004     libSvcFatal.a : FatalEventPortAc.o (.text:_ZN3Svc44_GLOBAL__N__20_FatalEventPortAc_cpp_dd6dfaa620FatalEventPortBufferD1Ev)
                  000a3208    00000004     libSvcTlmChan.a : TlmChanComponentAc.o (.text:_ZN3Svc46_GLOBAL__N__22_TlmChanComponentAc_cpp_8e78a87130ComponentIpcSerializableBufferD1Ev)
                  000a320c    00000004     libSvcActiveLogger.a : ActiveLoggerComponentAc.o (.text:_ZN3Svc51_GLOBAL__N__27_ActiveLoggerComponentAc_cpp_980eb92130ComponentIpcSerializableBufferD1Ev)
                  000a3210    00000004     libSvcActiveRateGroup.a : ActiveRateGroupComponentAc.o (.text:_ZN3Svc54_GLOBAL__N__30_ActiveRateGroupComponentAc_cpp_d117e47830ComponentIpcSerializableBufferD1Ev)
                  000a3214    00000004     libSvcCmdDispatcher.a : CommandDispatcherComponentAc.o (.text:_ZN3Svc56_GLOBAL__N__32_CommandDispatcherComponentAc_cpp_5537c58630ComponentIpcSerializableBufferD1Ev)
                  000a3218    00000004     rtsv7R4_T_le_v3D16_eabi.lib : new.cpp.obj (.text:_ZdaPv)
                  000a321c    00000004                                 : new.cpp.obj (.text:_ZdlPvj)
                  000a3220    00000004                                 : new.cpp.obj (.text:_Znaj)
                  000a3224    00000004                                 : error.c.obj (.text:__abort_execution)
                  000a3228    00000004                                 : fprintf.c.obj (.text:_outc)
                  000a322c    00000004                                 : printf.c.obj (.text:_outc)
                  000a3230    00000004                                 : fprintf.c.obj (.text:_outs)
                  000a3234    00000004                                 : printf.c.obj (.text:_outs)
                  000a3238    00000004                                 : exit.c.obj (.text:abort:abort)
                  000a323c    00000004     sys_phantom.obj (.text:retain)
                  000a3240    00000004     sys_startup.obj (.text)
                  000a3244    0000000c     rtsv7R4_T_le_v3D16_eabi.lib : strerror.c.obj (.tramp.strerror.1)
                  000a3250    0000000c                                 : strlen.c.obj (.tramp.strlen.1)
                  000a325c    0000000c                                 : new.cpp.obj (.tramp._ZdlPvj.1)

.const     0    000a3268    00003d0f     
                  000a3268    000002b8     NetworkInterface.obj (.const:_ZTVN5Wf12116NetworkInterfaceE)
                  000a3520    0000025c     Wf121BgApi.obj (.const:_ZTVN5Wf1215BgApi11BgApiDriverE)
                  000a377c    00000200     sys_vim.obj (.const:s_vim_init)
                  000a397c    00000138     WatchDogInterface.obj (.const:_ZTVN9CubeRover30WatchDogInterfaceComponentImplE)
                  000a3ab4    0000010c     WatchDogInterfaceComponentAc.obj (.const:_ZTVN9CubeRover30WatchDogInterfaceComponentBaseE)
                  000a3bc0    00000101     rtsv7R4_T_le_v3D16_eabi.lib : ctype.c.obj (.const:.string:_ctypes_)
                  000a3cc1    0000006b     WatchdogResetRequestPortAc.obj (.const:.typeinfo:_ZTSN14CubeRoverPorts54_GLOBAL__N__30_WatchdogResetRequestPortAc_cpp_0f54cacb30WatchdogResetRequestPortBufferE)
                  000a3d2c    00000068     libSvcCmdDispatcher.a : CommandDispatcherImpl.o (.const:_ZTVN3Svc21CommandDispatcherImplE)
                  000a3d94    00000068                           : CommandDispatcherComponentAc.o (.const:_ZTVN3Svc30CommandDispatcherComponentBaseE)
                  000a3dfc    00000067     WatchDogInterfaceComponentAc.obj (.const:.typeinfo:_ZTSN9CubeRover56_GLOBAL__N__32_WatchDogInterfaceComponentAc_cpp_843fad5030ComponentIpcSerializableBufferE)
                  000a3e63    00000061     libSvcCmdDispatcher.a : CommandDispatcherComponentAc.o (.const:.typeinfo:_ZTSN3Svc56_GLOBAL__N__32_CommandDispatcherComponentAc_cpp_5537c58630ComponentIpcSerializableBufferE)
                  000a3ec4    00000060     NavigationComponentAc.obj (.const:.typeinfo:_ZTSN9CubeRover49_GLOBAL__N__25_NavigationComponentAc_cpp_b9b8723430ComponentIpcSerializableBufferE)
                  000a3f24    0000005f     libSvcActiveRateGroup.a : ActiveRateGroupComponentAc.o (.const:.typeinfo:_ZTSN3Svc54_GLOBAL__N__30_ActiveRateGroupComponentAc_cpp_d117e47830ComponentIpcSerializableBufferE)
                  000a3f83    0000005f     CameraTakePicturePortAc.obj (.const:.typeinfo:_ZTSN9CubeRover51_GLOBAL__N__27_CameraTakePicturePortAc_cpp_d22da41c27CameraTakePicturePortBufferE)
                  000a3fe2    0000005c     libSvcActiveLogger.a : ActiveLoggerComponentAc.o (.const:.typeinfo:_ZTSN3Svc51_GLOBAL__N__27_ActiveLoggerComponentAc_cpp_980eb92130ComponentIpcSerializableBufferE)
                  000a403e    0000005b     MotorCommandPortAc.obj (.const:.typeinfo:_ZTSN14CubeRoverPorts46_GLOBAL__N__22_MotorCommandPortAc_cpp_9498a4ec22MotorCommandPortBufferE)
                  000a4099    0000005b     libDrvBlockDriver.a : BlockDriverComponentAc.o (.const:.typeinfo:_ZTSN3Drv50_GLOBAL__N__26_BlockDriverComponentAc_cpp_ac3b9f6530ComponentIpcSerializableBufferE)
                  000a40f4    00000058     NavigationComponentAc.obj (.const:_ZTVN9CubeRover23NavigationComponentBaseE)
                  000a414c    00000058     NavigationComponent.obj (.const:_ZTVN9CubeRover23NavigationComponentImplE)
                  000a41a4    00000057     libSvcTlmChan.a : TlmChanComponentAc.o (.const:.typeinfo:_ZTSN3Svc46_GLOBAL__N__22_TlmChanComponentAc_cpp_8e78a87130ComponentIpcSerializableBufferE)
                  000a41fb    00000055     MotorDataPortAc.obj (.const:.typeinfo:_ZTSN14CubeRoverPorts43_GLOBAL__N__19_MotorDataPortAc_cpp_bbdf208119MotorDataPortBufferE)
                  000a4250    00000055     FileDownlinkPortAc.obj (.const:.typeinfo:_ZTSN9CubeRover46_GLOBAL__N__22_FileDownlinkPortAc_cpp_337b708822FileDownlinkPortBufferE)
                  000a42a5    00000003     Wf121DirectMessage.obj (.const:.string:_ZN44_INTERNAL_22_Wf121DirectMessage_cpp_4cfed4345Wf12113DirectMessage36ILOCK_REF_BUFFER__HERC_HAS_INTERLOCKE)
                  000a42a8    00000054     libSvcActiveLogger.a : ActiveLoggerImpl.o (.const:_ZTVN3Svc16ActiveLoggerImplE)
                  000a42fc    00000054                          : ActiveLoggerComponentAc.o (.const:_ZTVN3Svc25ActiveLoggerComponentBaseE)
                  000a4350    00000051     IMUDataPortAc.obj (.const:.typeinfo:_ZTSN14CubeRoverPorts41_GLOBAL__N__17_IMUDataPortAc_cpp_6437ed9e17IMUDataPortBufferE)
                  000a43a1    0000004c     libFwCmd.a : CmdResponsePortAc.o (.const:.typeinfo:_ZTSN2Fw45_GLOBAL__N__21_CmdResponsePortAc_cpp_ade7c34621CmdResponsePortBufferE)
                  000a43ed    0000004b     libDrvDataTypes.a : DataBufferPortAc.o (.const:.typeinfo:_ZTSN3Drv44_GLOBAL__N__20_DataBufferPortAc_cpp_def37a2520DataBufferPortBufferE)
                  000a4438    0000004b     libSvcFatal.a : FatalEventPortAc.o (.const:.typeinfo:_ZTSN3Svc44_GLOBAL__N__20_FatalEventPortAc_cpp_dd6dfaa620FatalEventPortBufferE)
                  000a4483    0000004a     libFwBuffer.a : BufferSendPortAc.o (.const:.typeinfo:_ZTSN2Fw44_GLOBAL__N__20_BufferSendPortAc_cpp_c3bf741720BufferSendPortBufferE)
                  000a44cd    00000001     l3gd20h.obj (.const:$P$T0$1)
                  000a44ce    00000001     l3gd20h.obj (.const:$P$T1$2)
                  000a44cf    00000001     l3gd20h.obj (.const:$P$T2$3)
                  000a44d0    00000048     libSvcTlmChan.a : TlmChanImpl.o (.const:_ZTVN3Svc11TlmChanImplE)
                  000a4518    00000048     MotorControlComponentAc.obj (.const:_ZTVN9CubeRover25MotorControlComponentBaseE)
                  000a4560    00000048     MotorControlComponent.obj (.const:_ZTVN9CubeRover25MotorControlComponentImplE)
                  000a45a8    00000047     libSvcWatchDog.a : WatchDogPortAc.o (.const:.typeinfo:_ZTSN3Svc42_GLOBAL__N__18_WatchDogPortAc_cpp_af8886e518WatchDogPortBufferE)
                  000a45ef    00000044     libFwLog.a : LogTextPortAc.o (.const:.typeinfo:_ZTSN2Fw41_GLOBAL__N__17_LogTextPortAc_cpp_dae56cfb17LogTextPortBufferE)
                  000a4633    00000001     libSvcActiveLogger.a : ActiveLoggerImpl.o (.const)
                  000a4634    00000044     libSvcTlmChan.a : TlmChanComponentAc.o (.const:_ZTVN3Svc20TlmChanComponentBaseE)
                  000a4678    00000044     CameraComponentAc.obj (.const:_ZTVN9CubeRover19CameraComponentBaseE)
                  000a46bc    00000044     Camera.obj (.const:_ZTVN9CubeRover19CameraComponentImplE)
                  000a4700    00000042     libFwCmd.a : CmdRegPortAc.o (.const:.typeinfo:_ZTSN2Fw40_GLOBAL__N__16_CmdRegPortAc_cpp_22987e6f16CmdRegPortBufferE)
                  000a4742    00000041     libSvcCycle.a : CyclePortAc.o (.const:.typeinfo:_ZTSN3Svc39_GLOBAL__N__15_CyclePortAc_cpp_738d314115CyclePortBufferE)
                  000a4783    00000041     libSvcSched.a : SchedPortAc.o (.const:.typeinfo:_ZTSN3Svc39_GLOBAL__N__15_SchedPortAc_cpp_e9ea2acb15SchedPortBufferE)
                  000a47c4    00000040     libDrvBlockDriver.a : BlockDriverImpl.o (.const:_ZTVN3Drv15BlockDriverImplE)
                  000a4804    00000040                         : BlockDriverComponentAc.o (.const:_ZTVN3Drv24BlockDriverComponentBaseE)
                  000a4844    0000003f     libSvcPing.a : PingPortAc.o (.const:.typeinfo:_ZTSN3Svc38_GLOBAL__N__14_PingPortAc_cpp_70bc9b9c14PingPortBufferE)
                  000a4883    0000003e     libFwTime.a : TimePortAc.o (.const:.typeinfo:_ZTSN2Fw38_GLOBAL__N__14_TimePortAc_cpp_e154eb8414TimePortBufferE)
                  000a48c1    0000003c     libFwCmd.a : CmdPortAc.o (.const:.typeinfo:_ZTSN2Fw37_GLOBAL__N__13_CmdPortAc_cpp_9d3e2db413CmdPortBufferE)
                  000a48fd    0000003c     libFwCom.a : ComPortAc.o (.const:.typeinfo:_ZTSN2Fw37_GLOBAL__N__13_ComPortAc_cpp_35684bd213ComPortBufferE)
                  000a4939    0000003c     libFwLog.a : LogPortAc.o (.const:.typeinfo:_ZTSN2Fw37_GLOBAL__N__13_LogPortAc_cpp_33be358a13LogPortBufferE)
                  000a4975    0000003c     libFwTlm.a : TlmPortAc.o (.const:.typeinfo:_ZTSN2Fw37_GLOBAL__N__13_TlmPortAc_cpp_5992219913TlmPortBufferE)
                  000a49b1    00000003     --HOLE-- [fill = 0]
                  000a49b4    00000038     NetworkManagerComponentAc.obj (.const:_ZTVN9CubeRover27NetworkManagerComponentBaseE)
                  000a49ec    00000038     NetworkManager.obj (.const:_ZTVN9CubeRover27NetworkManagerComponentImplE)
                  000a4a24    00000038     GroundInterfaceComponentAc.obj (.const:_ZTVN9CubeRover28GroundInterfaceComponentBaseE)
                  000a4a5c    00000038     GroundInterface.obj (.const:_ZTVN9CubeRover28GroundInterfaceComponentImplE)
                  000a4a94    00000034     rtsv7R4_T_le_v3D16_eabi.lib : s_atanf.c.obj (.const:$O1$$)
                  000a4ac8    00000034     libSvcActiveRateGroup.a : ActiveRateGroupImpl.o (.const:_ZTVN3Svc19ActiveRateGroupImplE)
                  000a4afc    00000034                             : ActiveRateGroupComponentAc.o (.const:_ZTVN3Svc28ActiveRateGroupComponentBaseE)
                  000a4b30    00000033     WatchdogResetRequestPortAc.obj (.const:.typeinfo:_ZTSN14CubeRoverPorts30OutputWatchdogResetRequestPortE)
                  000a4b63    00000033     NetworkManager.obj (.const:.typeinfo:_ZTSN9CubeRover36WatchDogInterfaceComponentBaseFriendE)
                  000a4b96    00000032     WatchdogResetRequestPortAc.obj (.const:.typeinfo:_ZTSN14CubeRoverPorts29InputWatchdogResetRequestPortE)
                  000a4bc8    00000030     IMUComponentAc.obj (.const:_ZTVN9CubeRover16IMUComponentBaseE)
                  000a4bf8    00000030     IMUComponent.obj (.const:_ZTVN9CubeRover16IMUComponentImplE)
                  000a4c28    0000002d     libFwComp.a : ActiveComponentBase.o (.const:.typeinfo:_ZTSN2Fw37ActiveComponentExitSerializableBufferE)
                  000a4c55    0000002d     Wf121DirectMessage.obj (.const:.typeinfo:_ZTSN5Wf12113DirectMessage19DirectMessageDriverE)
                  000a4c82    0000002d     WatchDogInterfaceComponentAc.obj (.const:.typeinfo:_ZTSN9CubeRover30WatchDogInterfaceComponentBaseE)
                  000a4caf    0000002d     WatchDogInterface.obj (.const:.typeinfo:_ZTSN9CubeRover30WatchDogInterfaceComponentImplE)
                  000a4cdc    0000002c     libFwTypes.a : StringType.o (.const:_ZTVN2Fw10StringBaseE)
                  000a4d08    0000002c     libFwCmd.a : CmdString.o (.const:_ZTVN2Fw12CmdStringArgE)
                  000a4d34    0000002c     libFwLog.a : LogString.o (.const:_ZTVN2Fw12LogStringArgE)
                  000a4d60    0000002c                : TextLogString.o (.const:_ZTVN2Fw13TextLogStringE)
                  000a4d8c    0000002c     libFwTypes.a : EightyCharString.o (.const:_ZTVN2Fw16EightyCharStringE)
                  000a4db8    0000002c     libFwCmd.a : IrisCmdByteString.o (.const:_ZTVN2Fw20IrisCmdByteStringArgE)
                  000a4de4    0000002c     libOs.a : TaskString.o (.const:_ZTVN2Os10TaskStringE)
                  000a4e10    0000002c             : QueueString.o (.const:_ZTVN2Os11QueueStringE)
                  000a4e3c    0000002b     NetworkInterface.obj (.const:.string:_ZN42_INTERNAL_20_NetworkInterface_cpp_5259f4cc5Wf12119HELLO_EARTH_MESSAGEE)
                  000a4e67    0000002b     MotorCommandPortAc.obj (.const:.typeinfo:_ZTSN14CubeRoverPorts22OutputMotorCommandPortE)
                  000a4e92    0000002b     GroundInterfaceComponentAc.obj (.const:.typeinfo:_ZTSN9CubeRover28GroundInterfaceComponentBaseE)
                  000a4ebd    0000002b     GroundInterface.obj (.const:.typeinfo:_ZTSN9CubeRover28GroundInterfaceComponentImplE)
                  000a4ee8    0000002a     MotorCommandPortAc.obj (.const:.typeinfo:_ZTSN14CubeRoverPorts21InputMotorCommandPortE)
                  000a4f12    0000002a     NetworkManagerComponentAc.obj (.const:.typeinfo:_ZTSN9CubeRover27NetworkManagerComponentBaseE)
                  000a4f3c    0000002a     NetworkManager.obj (.const:.typeinfo:_ZTSN9CubeRover27NetworkManagerComponentImplE)
                  000a4f66    0000002a     CameraTakePicturePortAc.obj (.const:.typeinfo:_ZTSN9CubeRover27OutputCameraTakePicturePortE)
                  000a4f90    0000002a     WatchDogInterface.obj (.const:.typeinfo:_ZTSN9CubeRover27WatchDogRxCallbackProcessorE)
                  000a4fba    00000029     CameraTakePicturePortAc.obj (.const:.typeinfo:_ZTSN9CubeRover26InputCameraTakePicturePortE)
                  000a4fe3    00000001     --HOLE-- [fill = 0]
                  000a4fe4    00000028     NetworkInterface.obj (.const:.typeinfo:_ZTIN5Wf12116NetworkInterfaceE)
                  000a500c    00000028     MotorDataPortAc.obj (.const:.typeinfo:_ZTSN14CubeRoverPorts19OutputMotorDataPortE)
                  000a5034    00000028     MotorControlComponentAc.obj (.const:.typeinfo:_ZTSN9CubeRover25MotorControlComponentBaseE)
                  000a505c    00000028     MotorControlComponent.obj (.const:.typeinfo:_ZTSN9CubeRover25MotorControlComponentImplE)
                  000a5084    00000028     Wf121.obj (.const:_ZTVN5Wf12111RadioDriverE)
                  000a50ac    00000027     MotorDataPortAc.obj (.const:.typeinfo:_ZTSN14CubeRoverPorts18InputMotorDataPortE)
                  000a50d3    00000027     libSvcCmdDispatcher.a : CommandDispatcherComponentAc.o (.const:.typeinfo:_ZTSN3Svc30CommandDispatcherComponentBaseE)
                  000a50fa    00000026     NetworkInterface.obj (.const:.string:_ZN42_INTERNAL_20_NetworkInterface_cpp_5259f4cc5Wf12133CRITICAL_MSG__HERC_RX_BUFFER_FULLE)
                  000a5120    00000026     rtsv7R4_T_le_v3D16_eabi.lib : typeinfo.c.obj (.const:.typeinfo:_ZTSN10__cxxabiv121__vmi_class_type_infoE)
                  000a5146    00000026     IMUDataPortAc.obj (.const:.typeinfo:_ZTSN14CubeRoverPorts17OutputIMUDataPortE)
                  000a516c    00000026     Wf121BgApiPassthroughTxTask.obj (.const:.typeinfo:_ZTSN5Wf12127Wf121BgApiPassthroughTxTaskE)
                  000a5192    00000026     NavigationComponentAc.obj (.const:.typeinfo:_ZTSN9CubeRover23NavigationComponentBaseE)
                  000a51b8    00000026     NavigationComponent.obj (.const:.typeinfo:_ZTSN9CubeRover23NavigationComponentImplE)
                  000a51de    00000025     rtsv7R4_T_le_v3D16_eabi.lib : typeinfo.c.obj (.const:.typeinfo:_ZTSN10__cxxabiv120__si_class_type_infoE)
                  000a5203    00000025     IMUDataPortAc.obj (.const:.typeinfo:_ZTSN14CubeRoverPorts16InputIMUDataPortE)
                  000a5228    00000025     libSvcActiveRateGroup.a : ActiveRateGroupComponentAc.o (.const:.typeinfo:_ZTSN3Svc28ActiveRateGroupComponentBaseE)
                  000a524d    00000025     libSvcRateGroupDriver.a : RateGroupDriverComponentAc.o (.const:.typeinfo:_ZTSN3Svc28RateGroupDriverComponentBaseE)
                  000a5272    00000025     FileDownlinkPortAc.obj (.const:.typeinfo:_ZTSN9CubeRover22OutputFileDownlinkPortE)
                  000a5297    00000024     FileDownlinkPortAc.obj (.const:.typeinfo:_ZTSN9CubeRover21InputFileDownlinkPortE)
                  000a52bb    00000001     --HOLE-- [fill = 0]
                  000a52bc    00000024     libFwComp.a : ActiveComponentBase.o (.const:_ZTVN2Fw19ActiveComponentBaseE)
                  000a52e0    00000023     Wf121.obj (.const:.typeinfo:_ZTSN5Wf12124Wf121RxCallbackProcessorE)
                  000a5303    00000022     rtsv7R4_T_le_v3D16_eabi.lib : typeinfo.c.obj (.const:.typeinfo:_ZTSN10__cxxabiv117__class_type_infoE)
                  000a5325    00000022     libSvcActiveLogger.a : ActiveLoggerComponentAc.o (.const:.typeinfo:_ZTSN3Svc25ActiveLoggerComponentBaseE)
                  000a5347    00000022     CameraComponentAc.obj (.const:.typeinfo:_ZTSN9CubeRover19CameraComponentBaseE)
                  000a5369    00000022     Camera.obj (.const:.typeinfo:_ZTSN9CubeRover19CameraComponentImplE)
                  000a538b    00000021     libDrvBlockDriver.a : BlockDriverComponentAc.o (.const:.typeinfo:_ZTSN3Drv24BlockDriverComponentBaseE)
                  000a53ac    00000020     NetworkManager.obj (.const:.typeinfo:_ZTIN9CubeRover27NetworkManagerComponentImplE)
                  000a53cc    00000020     WatchDogInterface.obj (.const:.typeinfo:_ZTIN9CubeRover30WatchDogInterfaceComponentImplE)
                  000a53ec    00000020     Wf121DirectMessage.obj (.const:_ZTVN5Wf12113DirectMessage19DirectMessageDriverE)
                  000a540c    0000001f     NetworkInterface.obj (.const:.string:_ZN42_INTERNAL_20_NetworkInterface_cpp_5259f4cc5Wf12132GND_DIRECT_RSP_RESET_ALL_BUFFERSE)
                  000a542b    0000001f     libFwTypes.a : Serializable.o (.const:.typeinfo:_ZTSN2Fw23ExternalSerializeBufferE)
                  000a544a    0000001f     NetworkInterface.obj (.const:.typeinfo:_ZTSN5Wf12120ProtectedRadioStatusE)
                  000a5469    0000001f     IMUComponentAc.obj (.const:.typeinfo:_ZTSN9CubeRover16IMUComponentBaseE)
                  000a5488    0000001f     IMUComponent.obj (.const:.typeinfo:_ZTSN9CubeRover16IMUComponentImplE)
                  000a54a7    0000001e     libSvcCmdDispatcher.a : CommandDispatcherImpl.o (.const:.typeinfo:_ZTSN3Svc21CommandDispatcherImplE)
                  000a54c5    0000001d     libFwCmd.a : CmdResponsePortAc.o (.const:.typeinfo:_ZTSN2Fw21OutputCmdResponsePortE)
                  000a54e2    0000001d     libDrvDataTypes.a : DataBufferPortAc.o (.const:.typeinfo:_ZTSN3Drv20OutputDataBufferPortE)
                  000a54ff    0000001d     libSvcFatal.a : FatalEventPortAc.o (.const:.typeinfo:_ZTSN3Svc20OutputFatalEventPortE)
                  000a551c    0000001d     libSvcTlmChan.a : TlmChanComponentAc.o (.const:.typeinfo:_ZTSN3Svc20TlmChanComponentBaseE)
                  000a5539    0000001d     NetworkInterface.obj (.const:.typeinfo:_ZTSN5Wf12118Wf121TxTaskManagerE)
                  000a5556    0000001d     WatchDogRxTask.obj (.const:.typeinfo:_ZTSN9CubeRover14WatchDogRxTaskE)
                  000a5573    0000001c     NetworkInterface.obj (.const:.string:_ZN42_INTERNAL_20_NetworkInterface_cpp_5259f4cc5Wf12132GND_DIRECT_CMD_RESET_ALL_BUFFERSE)
                  000a558f    0000001c     libFwCmd.a : CmdResponsePortAc.o (.const:.typeinfo:_ZTSN2Fw20InputCmdResponsePortE)
                  000a55ab    0000001c                : IrisCmdByteString.o (.const:.typeinfo:_ZTSN2Fw20IrisCmdByteStringArgE)
                  000a55c7    0000001c     libFwBuffer.a : BufferSendPortAc.o (.const:.typeinfo:_ZTSN2Fw20OutputBufferSendPortE)
                  000a55e3    0000001c     libFwComp.a : PassiveComponentBase.o (.const:.typeinfo:_ZTSN2Fw20PassiveComponentBaseE)
                  000a55ff    0000001c     libDrvDataTypes.a : DataBufferPortAc.o (.const:.typeinfo:_ZTSN3Drv19InputDataBufferPortE)
                  000a561b    0000001c     libSvcActiveRateGroup.a : ActiveRateGroupImpl.o (.const:.typeinfo:_ZTSN3Svc19ActiveRateGroupImplE)
                  000a5637    0000001c     libSvcFatal.a : FatalEventPortAc.o (.const:.typeinfo:_ZTSN3Svc19InputFatalEventPortE)
                  000a5653    0000001c     libSvcRateGroupDriver.a : RateGroupDriverImpl.o (.const:.typeinfo:_ZTSN3Svc19RateGroupDriverImplE)
                  000a566f    0000001c     NetworkInterface.obj (.const:.typeinfo:_ZTSN5Wf1215BgApi11BgApiDriverE)
                  000a568b    00000001     --HOLE-- [fill = 0]
                  000a568c    0000001c     IMUDataPortAc.obj (.const:_ZTVN14CubeRoverPorts16InputIMUDataPortE)
                  000a56a8    0000001c     MotorDataPortAc.obj (.const:_ZTVN14CubeRoverPorts18InputMotorDataPortE)
                  000a56c4    0000001c     MotorCommandPortAc.obj (.const:_ZTVN14CubeRoverPorts21InputMotorCommandPortE)
                  000a56e0    0000001c     WatchdogResetRequestPortAc.obj (.const:_ZTVN14CubeRoverPorts29InputWatchdogResetRequestPortE)
                  000a56fc    0000001c     IMUDataPortAc.obj (.const:_ZTVN14CubeRoverPorts41_GLOBAL__N__17_IMUDataPortAc_cpp_6437ed9e17IMUDataPortBufferE)
                  000a5718    0000001c     MotorDataPortAc.obj (.const:_ZTVN14CubeRoverPorts43_GLOBAL__N__19_MotorDataPortAc_cpp_bbdf208119MotorDataPortBufferE)
                  000a5734    0000001c     MotorCommandPortAc.obj (.const:_ZTVN14CubeRoverPorts46_GLOBAL__N__22_MotorCommandPortAc_cpp_9498a4ec22MotorCommandPortBufferE)
                  000a5750    0000001c     WatchdogResetRequestPortAc.obj (.const:_ZTVN14CubeRoverPorts54_GLOBAL__N__30_WatchdogResetRequestPortAc_cpp_0f54cacb30WatchdogResetRequestPortBufferE)
                  000a576c    0000001c     libFwCmd.a : CmdArgBuffer.o (.const:_ZTVN2Fw12CmdArgBufferE)
                  000a5788    0000001c                : CmdPortAc.o (.const:_ZTVN2Fw12InputCmdPortE)
                  000a57a4    0000001c     libFwCom.a : ComPortAc.o (.const:_ZTVN2Fw12InputComPortE)
                  000a57c0    0000001c     libFwLog.a : LogPortAc.o (.const:_ZTVN2Fw12InputLogPortE)
                  000a57dc    0000001c     libFwTlm.a : TlmPortAc.o (.const:_ZTVN2Fw12InputTlmPortE)
                  000a57f8    0000001c     libFwTypes.a : Serializable.o (.const:_ZTVN2Fw12SerializableE)
                  000a5814    0000001c     libFwPort.a : InputPortBase.o (.const:_ZTVN2Fw13InputPortBaseE)
                  000a5830    0000001c     libFwTime.a : TimePortAc.o (.const:_ZTVN2Fw13InputTimePortE)
                  000a584c    0000001c     libFwCmd.a : CmdRegPortAc.o (.const:_ZTVN2Fw15InputCmdRegPortE)
                  000a5868    0000001c     libFwLog.a : LogTextPortAc.o (.const:_ZTVN2Fw16InputLogTextPortE)
                  000a5884    0000001c     libFwBuffer.a : BufferSendPortAc.o (.const:_ZTVN2Fw19InputBufferSendPortE)
                  000a58a0    0000001c     libFwTypes.a : Serializable.o (.const:_ZTVN2Fw19SerializeBufferBaseE)
                  000a58bc    0000001c     libFwCmd.a : CmdResponsePortAc.o (.const:_ZTVN2Fw20InputCmdResponsePortE)
                  000a58d8    0000001c     libFwTypes.a : Serializable.o (.const:_ZTVN2Fw23ExternalSerializeBufferE)
                  000a58f4    0000001c     libFwComp.a : ActiveComponentBase.o (.const:_ZTVN2Fw37ActiveComponentExitSerializableBufferE)
                  000a5910    0000001c     libFwCmd.a : CmdPortAc.o (.const:_ZTVN2Fw37_GLOBAL__N__13_CmdPortAc_cpp_9d3e2db413CmdPortBufferE)
                  000a592c    0000001c     libFwCom.a : ComPortAc.o (.const:_ZTVN2Fw37_GLOBAL__N__13_ComPortAc_cpp_35684bd213ComPortBufferE)
                  000a5948    0000001c     libFwLog.a : LogPortAc.o (.const:_ZTVN2Fw37_GLOBAL__N__13_LogPortAc_cpp_33be358a13LogPortBufferE)
                  000a5964    0000001c     libFwTlm.a : TlmPortAc.o (.const:_ZTVN2Fw37_GLOBAL__N__13_TlmPortAc_cpp_5992219913TlmPortBufferE)
                  000a5980    0000001c     libFwTime.a : TimePortAc.o (.const:_ZTVN2Fw38_GLOBAL__N__14_TimePortAc_cpp_e154eb8414TimePortBufferE)
                  000a599c    0000001c     libFwCmd.a : CmdRegPortAc.o (.const:_ZTVN2Fw40_GLOBAL__N__16_CmdRegPortAc_cpp_22987e6f16CmdRegPortBufferE)
                  000a59b8    0000001c     libFwLog.a : LogTextPortAc.o (.const:_ZTVN2Fw41_GLOBAL__N__17_LogTextPortAc_cpp_dae56cfb17LogTextPortBufferE)
                  000a59d4    0000001c     libFwBuffer.a : BufferSendPortAc.o (.const:_ZTVN2Fw44_GLOBAL__N__20_BufferSendPortAc_cpp_c3bf741720BufferSendPortBufferE)
                  000a59f0    0000001c     libFwCmd.a : CmdResponsePortAc.o (.const:_ZTVN2Fw45_GLOBAL__N__21_CmdResponsePortAc_cpp_ade7c34621CmdResponsePortBufferE)
                  000a5a0c    0000001c     libFwTime.a : Time.o (.const:_ZTVN2Fw4TimeE)
                  000a5a28    0000001c     libFwBuffer.a : BufferSerializableAc.o (.const:_ZTVN2Fw6BufferE)
                  000a5a44    0000001c     libFwCmd.a : CmdPacket.o (.const:_ZTVN2Fw9CmdPacketE)
                  000a5a60    0000001c     libFwCom.a : ComBuffer.o (.const:_ZTVN2Fw9ComBufferE)
                  000a5a7c    0000001c                : ComPacket.o (.const:_ZTVN2Fw9ComPacketE)
                  000a5a98    0000001c     libFwLog.a : LogBuffer.o (.const:_ZTVN2Fw9LogBufferE)
                  000a5ab4    0000001c                : LogPacket.o (.const:_ZTVN2Fw9LogPacketE)
                  000a5ad0    0000001c     libFwTlm.a : TlmBuffer.o (.const:_ZTVN2Fw9TlmBufferE)
                  000a5aec    0000001c                : TlmPacket.o (.const:_ZTVN2Fw9TlmPacketE)
                  000a5b08    0000001c     libDrvDataTypes.a : DataBuffer.o (.const:_ZTVN3Drv10DataBufferE)
                  000a5b24    0000001c                       : DataBufferPortAc.o (.const:_ZTVN3Drv19InputDataBufferPortE)
                  000a5b40    0000001c                       : DataBufferPortAc.o (.const:_ZTVN3Drv44_GLOBAL__N__20_DataBufferPortAc_cpp_def37a2520DataBufferPortBufferE)
                  000a5b5c    0000001c     libDrvBlockDriver.a : BlockDriverComponentAc.o (.const:_ZTVN3Drv50_GLOBAL__N__26_BlockDriverComponentAc_cpp_ac3b9f6530ComponentIpcSerializableBufferE)
                  000a5b78    0000001c     libSvcPing.a : PingPortAc.o (.const:_ZTVN3Svc13InputPingPortE)
                  000a5b94    0000001c     libSvcCycle.a : CyclePortAc.o (.const:_ZTVN3Svc14InputCyclePortE)
                  000a5bb0    0000001c     libSvcSched.a : SchedPortAc.o (.const:_ZTVN3Svc14InputSchedPortE)
                  000a5bcc    0000001c     libSvcWatchDog.a : WatchDogPortAc.o (.const:_ZTVN3Svc17InputWatchDogPortE)
                  000a5be8    0000001c     libSvcFatal.a : FatalEventPortAc.o (.const:_ZTVN3Svc19InputFatalEventPortE)
                  000a5c04    0000001c     libSvcPing.a : PingPortAc.o (.const:_ZTVN3Svc38_GLOBAL__N__14_PingPortAc_cpp_70bc9b9c14PingPortBufferE)
                  000a5c20    0000001c     libSvcCycle.a : CyclePortAc.o (.const:_ZTVN3Svc39_GLOBAL__N__15_CyclePortAc_cpp_738d314115CyclePortBufferE)
                  000a5c3c    0000001c     libSvcSched.a : SchedPortAc.o (.const:_ZTVN3Svc39_GLOBAL__N__15_SchedPortAc_cpp_e9ea2acb15SchedPortBufferE)
                  000a5c58    0000001c     libSvcWatchDog.a : WatchDogPortAc.o (.const:_ZTVN3Svc42_GLOBAL__N__18_WatchDogPortAc_cpp_af8886e518WatchDogPortBufferE)
                  000a5c74    0000001c     libSvcFatal.a : FatalEventPortAc.o (.const:_ZTVN3Svc44_GLOBAL__N__20_FatalEventPortAc_cpp_dd6dfaa620FatalEventPortBufferE)
                  000a5c90    0000001c     libSvcTlmChan.a : TlmChanComponentAc.o (.const:_ZTVN3Svc46_GLOBAL__N__22_TlmChanComponentAc_cpp_8e78a87130ComponentIpcSerializableBufferE)
                  000a5cac    0000001c     libSvcActiveLogger.a : ActiveLoggerComponentAc.o (.const:_ZTVN3Svc51_GLOBAL__N__27_ActiveLoggerComponentAc_cpp_980eb92130ComponentIpcSerializableBufferE)
                  000a5cc8    0000001c     libSvcActiveRateGroup.a : ActiveRateGroupComponentAc.o (.const:_ZTVN3Svc54_GLOBAL__N__30_ActiveRateGroupComponentAc_cpp_d117e47830ComponentIpcSerializableBufferE)
                  000a5ce4    0000001c     libSvcCmdDispatcher.a : CommandDispatcherComponentAc.o (.const:_ZTVN3Svc56_GLOBAL__N__32_CommandDispatcherComponentAc_cpp_5537c58630ComponentIpcSerializableBufferE)
                  000a5d00    0000001c     libSvcCycle.a : TimerVal.o (.const:_ZTVN3Svc8TimerValE)
                  000a5d1c    0000001c     FileDownlinkPortAc.obj (.const:_ZTVN9CubeRover21InputFileDownlinkPortE)
                  000a5d38    0000001c     CameraTakePicturePortAc.obj (.const:_ZTVN9CubeRover26InputCameraTakePicturePortE)
                  000a5d54    0000001c     FileDownlinkPortAc.obj (.const:_ZTVN9CubeRover46_GLOBAL__N__22_FileDownlinkPortAc_cpp_337b708822FileDownlinkPortBufferE)
                  000a5d70    0000001c     NavigationComponentAc.obj (.const:_ZTVN9CubeRover49_GLOBAL__N__25_NavigationComponentAc_cpp_b9b8723430ComponentIpcSerializableBufferE)
                  000a5d8c    0000001c     CameraTakePicturePortAc.obj (.const:_ZTVN9CubeRover51_GLOBAL__N__27_CameraTakePicturePortAc_cpp_d22da41c27CameraTakePicturePortBufferE)
                  000a5da8    0000001c     WatchDogInterfaceComponentAc.obj (.const:_ZTVN9CubeRover56_GLOBAL__N__32_WatchDogInterfaceComponentAc_cpp_843fad5030ComponentIpcSerializableBufferE)
                  000a5dc4    0000001b     libFwComp.a : ActiveComponentBase.o (.const:.typeinfo:_ZTSN2Fw19ActiveComponentBaseE)
                  000a5ddf    0000001b     libFwBuffer.a : BufferSendPortAc.o (.const:.typeinfo:_ZTSN2Fw19InputBufferSendPortE)
                  000a5dfa    0000001b     libFwComp.a : QueuedComponentBase.o (.const:.typeinfo:_ZTSN2Fw19QueuedComponentBaseE)
                  000a5e15    0000001b     libFwTypes.a : Serializable.o (.const:.typeinfo:_ZTSN2Fw19SerializeBufferBaseE)
                  000a5e30    0000001b     libSvcWatchDog.a : WatchDogPortAc.o (.const:.typeinfo:_ZTSN3Svc18OutputWatchDogPortE)
                  000a5e4b    0000001b     NetworkInterface.obj (.const:.typeinfo:_ZTSN5Wf12116NetworkInterfaceE)
                  000a5e66    0000001a     libSvcLinuxTime.a : CubeRoverTimeImpl.o (.const:.typeinfo:_ZTSN3Svc17CubeRoverTimeImplE)
                  000a5e80    0000001a     libSvcWatchDog.a : WatchDogPortAc.o (.const:.typeinfo:_ZTSN3Svc17InputWatchDogPortE)
                  000a5e9a    0000001a     libSvcTime.a : TimeComponentAc.o (.const:.typeinfo:_ZTSN3Svc17TimeComponentBaseE)
                  000a5eb4    00000019     libFwLog.a : LogTextPortAc.o (.const:.typeinfo:_ZTSN2Fw17OutputLogTextPortE)
                  000a5ecd    00000019     libSvcActiveLogger.a : ActiveLoggerImpl.o (.const:.typeinfo:_ZTSN3Svc16ActiveLoggerImplE)
                  000a5ee6    00000019     Wf121UdpTxTask.obj (.const:.typeinfo:_ZTSN5Wf12114Wf121UdpTxTaskE)
                  000a5eff    00000001     --HOLE-- [fill = 0]
                  000a5f00    00000018     NetworkManager.obj (.const:$P$T4$2)
                  000a5f18    00000018     WatchDogInterface.obj (.const:.string:$P$T11$3)
                  000a5f30    00000018     WatchDogInterface.obj (.const:.string:$P$T12$4)
                  000a5f48    00000018     WatchDogInterface.obj (.const:.string:$P$T15$6)
                  000a5f60    00000018     Wf121DirectMessage.obj (.const:.string:_ZN44_INTERNAL_22_Wf121DirectMessage_cpp_4cfed4345Wf12113DirectMessage41DOING_REF_BUFFER__WAITING_THEN_CORRECTINGE)
                  000a5f78    00000018     Wf121.obj (.const:.typeinfo:_ZTIN5Wf12111RadioDriverE)
                  000a5f90    00000018     NetworkInterface.obj (.const:.typeinfo:_ZTIN5Wf12120ProtectedRadioStatusE)
                  000a5fa8    00000018     libFwTypes.a : EightyCharString.o (.const:.typeinfo:_ZTSN2Fw16EightyCharStringE)
                  000a5fc0    00000018     libFwLog.a : LogTextPortAc.o (.const:.typeinfo:_ZTSN2Fw16InputLogTextPortE)
                  000a5fd8    00000018     libFwCmd.a : CmdRegPortAc.o (.const:.typeinfo:_ZTSN2Fw16OutputCmdRegPortE)
                  000a5ff0    00000018     libDrvBlockDriver.a : BlockDriverImpl.o (.const:.typeinfo:_ZTSN3Drv15BlockDriverImplE)
                  000a6008    00000018     libSvcCycle.a : CyclePortAc.o (.const:.typeinfo:_ZTSN3Svc15OutputCyclePortE)
                  000a6020    00000018     libSvcSched.a : SchedPortAc.o (.const:.typeinfo:_ZTSN3Svc15OutputSchedPortE)
                  000a6038    00000018     IMUDataPortAc.obj (.const:_ZTVN14CubeRoverPorts17OutputIMUDataPortE)
                  000a6050    00000018     MotorDataPortAc.obj (.const:_ZTVN14CubeRoverPorts19OutputMotorDataPortE)
                  000a6068    00000018     MotorCommandPortAc.obj (.const:_ZTVN14CubeRoverPorts22OutputMotorCommandPortE)
                  000a6080    00000018     WatchdogResetRequestPortAc.obj (.const:_ZTVN14CubeRoverPorts30OutputWatchdogResetRequestPortE)
                  000a6098    00000018     libFwCmd.a : CmdPortAc.o (.const:_ZTVN2Fw13OutputCmdPortE)
                  000a60b0    00000018     libFwCom.a : ComPortAc.o (.const:_ZTVN2Fw13OutputComPortE)
                  000a60c8    00000018     libFwLog.a : LogPortAc.o (.const:_ZTVN2Fw13OutputLogPortE)
                  000a60e0    00000018     libFwTlm.a : TlmPortAc.o (.const:_ZTVN2Fw13OutputTlmPortE)
                  000a60f8    00000018     libFwPort.a : OutputPortBase.o (.const:_ZTVN2Fw14OutputPortBaseE)
                  000a6110    00000018     libFwTime.a : TimePortAc.o (.const:_ZTVN2Fw14OutputTimePortE)
                  000a6128    00000018     libFwCmd.a : CmdRegPortAc.o (.const:_ZTVN2Fw16OutputCmdRegPortE)
                  000a6140    00000018     libFwLog.a : LogTextPortAc.o (.const:_ZTVN2Fw17OutputLogTextPortE)
                  000a6158    00000018     libFwComp.a : QueuedComponentBase.o (.const:_ZTVN2Fw19QueuedComponentBaseE)
                  000a6170    00000018     libFwBuffer.a : BufferSendPortAc.o (.const:_ZTVN2Fw20OutputBufferSendPortE)
                  000a6188    00000018     libFwCmd.a : CmdResponsePortAc.o (.const:_ZTVN2Fw21OutputCmdResponsePortE)
                  000a61a0    00000018     libFwPort.a : PortBase.o (.const:_ZTVN2Fw8PortBaseE)
                  000a61b8    00000018     libOs.a : TaskCommon.o (.const:_ZTVN2Os12TaskRegistryE)
                  000a61d0    00000018     libDrvDataTypes.a : DataBufferPortAc.o (.const:_ZTVN3Drv20OutputDataBufferPortE)
                  000a61e8    00000018     libSvcPing.a : PingPortAc.o (.const:_ZTVN3Svc14OutputPingPortE)
                  000a6200    00000018     libSvcCycle.a : CyclePortAc.o (.const:_ZTVN3Svc15OutputCyclePortE)
                  000a6218    00000018     libSvcSched.a : SchedPortAc.o (.const:_ZTVN3Svc15OutputSchedPortE)
                  000a6230    00000018     libSvcLinuxTime.a : CubeRoverTimeImpl.o (.const:_ZTVN3Svc17CubeRoverTimeImplE)
                  000a6248    00000018     libSvcTime.a : TimeComponentAc.o (.const:_ZTVN3Svc17TimeComponentBaseE)
                  000a6260    00000018     libSvcWatchDog.a : WatchDogPortAc.o (.const:_ZTVN3Svc18OutputWatchDogPortE)
                  000a6278    00000018     libSvcRateGroupDriver.a : RateGroupDriverImpl.o (.const:_ZTVN3Svc19RateGroupDriverImplE)
                  000a6290    00000018     libSvcFatal.a : FatalEventPortAc.o (.const:_ZTVN3Svc20OutputFatalEventPortE)
                  000a62a8    00000018     libSvcRateGroupDriver.a : RateGroupDriverComponentAc.o (.const:_ZTVN3Svc28RateGroupDriverComponentBaseE)
                  000a62c0    00000018     FileDownlinkPortAc.obj (.const:_ZTVN9CubeRover22OutputFileDownlinkPortE)
                  000a62d8    00000018     CameraTakePicturePortAc.obj (.const:_ZTVN9CubeRover27OutputCameraTakePicturePortE)
                  000a62f0    00000018     adc.obj (.const:s_adcFiFoSize)
                  000a6308    00000018     adc.obj (.const:s_adcSelect)
                  000a6320    00000017     libFwCmd.a : CmdRegPortAc.o (.const:.typeinfo:_ZTSN2Fw15InputCmdRegPortE)
                  000a6337    00000017     libSvcCycle.a : CyclePortAc.o (.const:.typeinfo:_ZTSN3Svc14InputCyclePortE)
                  000a634e    00000017     libSvcSched.a : SchedPortAc.o (.const:.typeinfo:_ZTSN3Svc14InputSchedPortE)
                  000a6365    00000017     libSvcPing.a : PingPortAc.o (.const:.typeinfo:_ZTSN3Svc14OutputPingPortE)
                  000a637c    00000016     libFwPort.a : OutputPortBase.o (.const:.typeinfo:_ZTSN2Fw14OutputPortBaseE)
                  000a6392    00000016     libFwTime.a : TimePortAc.o (.const:.typeinfo:_ZTSN2Fw14OutputTimePortE)
                  000a63a8    00000016     libSvcPing.a : PingPortAc.o (.const:.typeinfo:_ZTSN3Svc13InputPingPortE)
                  000a63be    00000016     Wf121.obj (.const:.typeinfo:_ZTSN5Wf12111RadioDriverE)
                  000a63d4    00000016     NetworkInterface.obj (.const:.typeinfo:_ZTSN5Wf12111RadioStatusE)
                  000a63ea    00000016     Wf121RxTask.obj (.const:.typeinfo:_ZTSN5Wf12111Wf121RxTaskE)
                  000a6400    00000015     libFwPort.a : InputPortBase.o (.const:.typeinfo:_ZTSN2Fw13InputPortBaseE)
                  000a6415    00000015     libFwTime.a : TimePortAc.o (.const:.typeinfo:_ZTSN2Fw13InputTimePortE)
                  000a642a    00000015     libFwCmd.a : CmdPortAc.o (.const:.typeinfo:_ZTSN2Fw13OutputCmdPortE)
                  000a643f    00000015     libFwCom.a : ComPortAc.o (.const:.typeinfo:_ZTSN2Fw13OutputComPortE)
                  000a6454    00000015     libFwLog.a : LogPortAc.o (.const:.typeinfo:_ZTSN2Fw13OutputLogPortE)
                  000a6469    00000015     libFwTlm.a : TlmPortAc.o (.const:.typeinfo:_ZTSN2Fw13OutputTlmPortE)
                  000a647e    00000015     libFwLog.a : TextLogString.o (.const:.typeinfo:_ZTSN2Fw13TextLogStringE)
                  000a6493    00000015     libOs.a : IntervalTimer.o (.const:.typeinfo:_ZTSN2Os13IntervalTimerE)
                  000a64a8    00000014     libFwCmd.a : CmdArgBuffer.o (.const:.typeinfo:_ZTSN2Fw12CmdArgBufferE)
                  000a64bc    00000014                : CmdString.o (.const:.typeinfo:_ZTSN2Fw12CmdStringArgE)
                  000a64d0    00000014                : CmdPortAc.o (.const:.typeinfo:_ZTSN2Fw12InputCmdPortE)
                  000a64e4    00000014     libFwCom.a : ComPortAc.o (.const:.typeinfo:_ZTSN2Fw12InputComPortE)
                  000a64f8    00000014     libFwLog.a : LogPortAc.o (.const:.typeinfo:_ZTSN2Fw12InputLogPortE)
                  000a650c    00000014     libFwTlm.a : TlmPortAc.o (.const:.typeinfo:_ZTSN2Fw12InputTlmPortE)
                  000a6520    00000014     libFwLog.a : LogString.o (.const:.typeinfo:_ZTSN2Fw12LogStringArgE)
                  000a6534    00000014     libFwTypes.a : Serializable.o (.const:.typeinfo:_ZTSN2Fw12SerializableE)
                  000a6548    00000014     libOs.a : TaskCommon.o (.const:.typeinfo:_ZTSN2Os12TaskRegistryE)
                  000a655c    00000014     libSvcTlmChan.a : TlmChanImpl.o (.const:.typeinfo:_ZTSN3Svc11TlmChanImplE)
                  000a6570    00000014     libFwComp.a : PassiveComponentBase.o (.const:_ZTVN2Fw20PassiveComponentBaseE)
                  000a6584    00000014     libFwObj.a : ObjBase.o (.const:_ZTVN2Fw7ObjBaseE)
                  000a6598    00000014     NetworkInterface.obj (.const:_ZTVN5Wf12111RadioStatusE)
                  000a65ac    00000014     NetworkInterface.obj (.const:_ZTVN5Wf12118Wf121TxTaskManagerE)
                  000a65c0    00000014     NetworkInterface.obj (.const:_ZTVN5Wf12120ProtectedRadioStatusE)
                  000a65d4    00000014     Wf121.obj (.const:_ZTVN5Wf12124Wf121RxCallbackProcessorE)
                  000a65e8    00000014     WatchDogInterface.obj (.const:_ZTVN9CubeRover27WatchDogRxCallbackProcessorE)
                  000a65fc    00000013     Wf121DirectMessage.obj (.const:.string:_ZN44_INTERNAL_22_Wf121DirectMessage_cpp_4cfed4345Wf12113DirectMessage36DOING_REF_BUFFER__CONNECTING_NETWORKE)
                  000a660f    00000013     Wf121DirectMessage.obj (.const:.string:_ZN44_INTERNAL_22_Wf121DirectMessage_cpp_4cfed4345Wf12113DirectMessage36DOING_REF_BUFFER__REMAINING_VIGILENTE)
                  000a6622    00000013     libOs.a : QueueString.o (.const:.typeinfo:_ZTSN2Os11QueueStringE)
                  000a6635    00000013     libDrvDataTypes.a : DataBuffer.o (.const:.typeinfo:_ZTSN3Drv10DataBufferE)
                  000a6648    00000012     libFwTypes.a : StringType.o (.const:.typeinfo:_ZTSN2Fw10StringBaseE)
                  000a665a    00000012     libOs.a : TaskString.o (.const:.typeinfo:_ZTSN2Os10TaskStringE)
                  000a666c    00000010     GroundInterface.obj (.const:$P$T2$1)
                  000a667c    00000010     Wf121DirectMessage.obj (.const:.string:_ZN44_INTERNAL_22_Wf121DirectMessage_cpp_4cfed4345Wf12113DirectMessage33DOING_REF_BUFFER__TURNING_WIFI_ONE)
                  000a668c    00000010     libFwCmd.a : CmdPacket.o (.const:.typeinfo:_ZTSN2Fw9CmdPacketE)
                  000a669c    00000010     libFwCom.a : ComBuffer.o (.const:.typeinfo:_ZTSN2Fw9ComBufferE)
                  000a66ac    00000010                : ComPacket.o (.const:.typeinfo:_ZTSN2Fw9ComPacketE)
                  000a66bc    00000010     libFwLog.a : LogBuffer.o (.const:.typeinfo:_ZTSN2Fw9LogBufferE)
                  000a66cc    00000010                : LogPacket.o (.const:.typeinfo:_ZTSN2Fw9LogPacketE)
                  000a66dc    00000010     libFwTlm.a : TlmBuffer.o (.const:.typeinfo:_ZTSN2Fw9TlmBufferE)
                  000a66ec    00000010                : TlmPacket.o (.const:.typeinfo:_ZTSN2Fw9TlmPacketE)
                  000a66fc    00000010     libSvcCycle.a : TimerVal.o (.const:.typeinfo:_ZTSN3Svc8TimerValE)
                  000a670c    00000010     rtsv7R4_T_le_v3D16_eabi.lib : typeinfo.c.obj (.const:_ZTVN10__cxxabiv117__class_type_infoE)
                  000a671c    00000010                                 : typeinfo.c.obj (.const:_ZTVN10__cxxabiv120__si_class_type_infoE)
                  000a672c    00000010                                 : typeinfo.c.obj (.const:_ZTVN10__cxxabiv121__vmi_class_type_infoE)
                  000a673c    00000010     libOs.a : IntervalTimer.o (.const:_ZTVN2Os13IntervalTimerE)
                  000a674c    00000010             : File.o (.const:_ZTVN2Os4FileE)
                  000a675c    00000010             : Task.o (.const:_ZTVN2Os4TaskE)
                  000a676c    00000010             : Mutex.o (.const:_ZTVN2Os5MutexE)
                  000a677c    00000010             : Queue.o (.const:_ZTVN2Os5QueueE)
                  000a678c    00000010     Wf121RxTask.obj (.const:_ZTVN5Wf12111Wf121RxTaskE)
                  000a679c    00000010     Wf121UdpTxTask.obj (.const:_ZTVN5Wf12114Wf121UdpTxTaskE)
                  000a67ac    00000010     Wf121BgApiPassthroughTxTask.obj (.const:_ZTVN5Wf12127Wf121BgApiPassthroughTxTaskE)
                  000a67bc    00000010     WatchDogRxTask.obj (.const:_ZTVN9CubeRover14WatchDogRxTaskE)
                  000a67cc    0000000f     libFwPort.a : PortBase.o (.const:.typeinfo:_ZTSN2Fw8PortBaseE)
                  000a67db    0000000e     Wf121DirectMessage.obj (.const:.string:_ZN44_INTERNAL_22_Wf121DirectMessage_cpp_4cfed4345Wf12113DirectMessage31STATE_REF_BUFFER__UDP_CONNECTEDE)
                  000a67e9    0000000e     libFwObj.a : ObjBase.o (.const:.typeinfo:_ZTSN2Fw7ObjBaseE)
                  000a67f7    0000000d     Wf121DirectMessage.obj (.const:.string:_ZN44_INTERNAL_22_Wf121DirectMessage_cpp_4cfed4345Wf12113DirectMessage30DOING_REF_BUFFER__STARTING_UDPE)
                  000a6804    0000000d     NetworkInterface.obj (.const:.string:debugDownlinkPrefix$1)
                  000a6811    0000000d     libFwBuffer.a : BufferSerializableAc.o (.const:.typeinfo:_ZTSN2Fw6BufferE)
                  000a681e    0000000d     rtsv7R4_T_le_v3D16_eabi.lib : stdlib_typeinfo.cpp.obj (.const:.typeinfo:_ZTSSt9type_info)
                  000a682b    00000001     --HOLE-- [fill = 0]
                  000a682c    0000000c                                 : typeinfo.c.obj (.const:.typeinfo:_ZTIN10__cxxabiv117__class_type_infoE)
                  000a6838    0000000c                                 : typeinfo.c.obj (.const:.typeinfo:_ZTIN10__cxxabiv120__si_class_type_infoE)
                  000a6844    0000000c                                 : typeinfo.c.obj (.const:.typeinfo:_ZTIN10__cxxabiv121__vmi_class_type_infoE)
                  000a6850    0000000c     IMUDataPortAc.obj (.const:.typeinfo:_ZTIN14CubeRoverPorts16InputIMUDataPortE)
                  000a685c    0000000c     IMUDataPortAc.obj (.const:.typeinfo:_ZTIN14CubeRoverPorts17OutputIMUDataPortE)
                  000a6868    0000000c     MotorDataPortAc.obj (.const:.typeinfo:_ZTIN14CubeRoverPorts18InputMotorDataPortE)
                  000a6874    0000000c     MotorDataPortAc.obj (.const:.typeinfo:_ZTIN14CubeRoverPorts19OutputMotorDataPortE)
                  000a6880    0000000c     MotorCommandPortAc.obj (.const:.typeinfo:_ZTIN14CubeRoverPorts21InputMotorCommandPortE)
                  000a688c    0000000c     MotorCommandPortAc.obj (.const:.typeinfo:_ZTIN14CubeRoverPorts22OutputMotorCommandPortE)
                  000a6898    0000000c     WatchdogResetRequestPortAc.obj (.const:.typeinfo:_ZTIN14CubeRoverPorts29InputWatchdogResetRequestPortE)
                  000a68a4    0000000c     WatchdogResetRequestPortAc.obj (.const:.typeinfo:_ZTIN14CubeRoverPorts30OutputWatchdogResetRequestPortE)
                  000a68b0    0000000c     IMUDataPortAc.obj (.const:.typeinfo:_ZTIN14CubeRoverPorts41_GLOBAL__N__17_IMUDataPortAc_cpp_6437ed9e17IMUDataPortBufferE)
                  000a68bc    0000000c     MotorDataPortAc.obj (.const:.typeinfo:_ZTIN14CubeRoverPorts43_GLOBAL__N__19_MotorDataPortAc_cpp_bbdf208119MotorDataPortBufferE)
                  000a68c8    0000000c     MotorCommandPortAc.obj (.const:.typeinfo:_ZTIN14CubeRoverPorts46_GLOBAL__N__22_MotorCommandPortAc_cpp_9498a4ec22MotorCommandPortBufferE)
                  000a68d4    0000000c     WatchdogResetRequestPortAc.obj (.const:.typeinfo:_ZTIN14CubeRoverPorts54_GLOBAL__N__30_WatchdogResetRequestPortAc_cpp_0f54cacb30WatchdogResetRequestPortBufferE)
                  000a68e0    0000000c     libFwTypes.a : StringType.o (.const:.typeinfo:_ZTIN2Fw10StringBaseE)
                  000a68ec    0000000c     libFwCmd.a : CmdArgBuffer.o (.const:.typeinfo:_ZTIN2Fw12CmdArgBufferE)
                  000a68f8    0000000c                : CmdString.o (.const:.typeinfo:_ZTIN2Fw12CmdStringArgE)
                  000a6904    0000000c                : CmdPortAc.o (.const:.typeinfo:_ZTIN2Fw12InputCmdPortE)
                  000a6910    0000000c     libFwCom.a : ComPortAc.o (.const:.typeinfo:_ZTIN2Fw12InputComPortE)
                  000a691c    0000000c     libFwLog.a : LogPortAc.o (.const:.typeinfo:_ZTIN2Fw12InputLogPortE)
                  000a6928    0000000c     libFwTlm.a : TlmPortAc.o (.const:.typeinfo:_ZTIN2Fw12InputTlmPortE)
                  000a6934    0000000c     libFwLog.a : LogString.o (.const:.typeinfo:_ZTIN2Fw12LogStringArgE)
                  000a6940    0000000c     libFwPort.a : InputPortBase.o (.const:.typeinfo:_ZTIN2Fw13InputPortBaseE)
                  000a694c    0000000c     libFwTime.a : TimePortAc.o (.const:.typeinfo:_ZTIN2Fw13InputTimePortE)
                  000a6958    0000000c     libFwCmd.a : CmdPortAc.o (.const:.typeinfo:_ZTIN2Fw13OutputCmdPortE)
                  000a6964    0000000c     libFwCom.a : ComPortAc.o (.const:.typeinfo:_ZTIN2Fw13OutputComPortE)
                  000a6970    0000000c     libFwLog.a : LogPortAc.o (.const:.typeinfo:_ZTIN2Fw13OutputLogPortE)
                  000a697c    0000000c     libFwTlm.a : TlmPortAc.o (.const:.typeinfo:_ZTIN2Fw13OutputTlmPortE)
                  000a6988    0000000c     libFwLog.a : TextLogString.o (.const:.typeinfo:_ZTIN2Fw13TextLogStringE)
                  000a6994    0000000c     libFwPort.a : OutputPortBase.o (.const:.typeinfo:_ZTIN2Fw14OutputPortBaseE)
                  000a69a0    0000000c     libFwTime.a : TimePortAc.o (.const:.typeinfo:_ZTIN2Fw14OutputTimePortE)
                  000a69ac    0000000c     libFwCmd.a : CmdRegPortAc.o (.const:.typeinfo:_ZTIN2Fw15InputCmdRegPortE)
                  000a69b8    0000000c     libFwTypes.a : EightyCharString.o (.const:.typeinfo:_ZTIN2Fw16EightyCharStringE)
                  000a69c4    0000000c     libFwLog.a : LogTextPortAc.o (.const:.typeinfo:_ZTIN2Fw16InputLogTextPortE)
                  000a69d0    0000000c     libFwCmd.a : CmdRegPortAc.o (.const:.typeinfo:_ZTIN2Fw16OutputCmdRegPortE)
                  000a69dc    0000000c     libFwLog.a : LogTextPortAc.o (.const:.typeinfo:_ZTIN2Fw17OutputLogTextPortE)
                  000a69e8    0000000c     libFwComp.a : ActiveComponentBase.o (.const:.typeinfo:_ZTIN2Fw19ActiveComponentBaseE)
                  000a69f4    0000000c     libFwBuffer.a : BufferSendPortAc.o (.const:.typeinfo:_ZTIN2Fw19InputBufferSendPortE)
                  000a6a00    0000000c     libFwComp.a : QueuedComponentBase.o (.const:.typeinfo:_ZTIN2Fw19QueuedComponentBaseE)
                  000a6a0c    0000000c     libFwCmd.a : CmdResponsePortAc.o (.const:.typeinfo:_ZTIN2Fw20InputCmdResponsePortE)
                  000a6a18    0000000c                : IrisCmdByteString.o (.const:.typeinfo:_ZTIN2Fw20IrisCmdByteStringArgE)
                  000a6a24    0000000c     libFwBuffer.a : BufferSendPortAc.o (.const:.typeinfo:_ZTIN2Fw20OutputBufferSendPortE)
                  000a6a30    0000000c     libFwComp.a : PassiveComponentBase.o (.const:.typeinfo:_ZTIN2Fw20PassiveComponentBaseE)
                  000a6a3c    0000000c     libFwCmd.a : CmdResponsePortAc.o (.const:.typeinfo:_ZTIN2Fw21OutputCmdResponsePortE)
                  000a6a48    0000000c     libFwTypes.a : Serializable.o (.const:.typeinfo:_ZTIN2Fw23ExternalSerializeBufferE)
                  000a6a54    0000000c     libFwComp.a : ActiveComponentBase.o (.const:.typeinfo:_ZTIN2Fw37ActiveComponentExitSerializableBufferE)
                  000a6a60    0000000c     libFwCmd.a : CmdPortAc.o (.const:.typeinfo:_ZTIN2Fw37_GLOBAL__N__13_CmdPortAc_cpp_9d3e2db413CmdPortBufferE)
                  000a6a6c    0000000c     libFwCom.a : ComPortAc.o (.const:.typeinfo:_ZTIN2Fw37_GLOBAL__N__13_ComPortAc_cpp_35684bd213ComPortBufferE)
                  000a6a78    0000000c     libFwLog.a : LogPortAc.o (.const:.typeinfo:_ZTIN2Fw37_GLOBAL__N__13_LogPortAc_cpp_33be358a13LogPortBufferE)
                  000a6a84    0000000c     libFwTlm.a : TlmPortAc.o (.const:.typeinfo:_ZTIN2Fw37_GLOBAL__N__13_TlmPortAc_cpp_5992219913TlmPortBufferE)
                  000a6a90    0000000c     libFwTime.a : TimePortAc.o (.const:.typeinfo:_ZTIN2Fw38_GLOBAL__N__14_TimePortAc_cpp_e154eb8414TimePortBufferE)
                  000a6a9c    0000000c     libFwCmd.a : CmdRegPortAc.o (.const:.typeinfo:_ZTIN2Fw40_GLOBAL__N__16_CmdRegPortAc_cpp_22987e6f16CmdRegPortBufferE)
                  000a6aa8    0000000c     libFwLog.a : LogTextPortAc.o (.const:.typeinfo:_ZTIN2Fw41_GLOBAL__N__17_LogTextPortAc_cpp_dae56cfb17LogTextPortBufferE)
                  000a6ab4    0000000c     libFwBuffer.a : BufferSendPortAc.o (.const:.typeinfo:_ZTIN2Fw44_GLOBAL__N__20_BufferSendPortAc_cpp_c3bf741720BufferSendPortBufferE)
                  000a6ac0    0000000c     libFwCmd.a : CmdResponsePortAc.o (.const:.typeinfo:_ZTIN2Fw45_GLOBAL__N__21_CmdResponsePortAc_cpp_ade7c34621CmdResponsePortBufferE)
                  000a6acc    0000000c     libFwTime.a : Time.o (.const:.typeinfo:_ZTIN2Fw4TimeE)
                  000a6ad8    0000000c     libFwBuffer.a : BufferSerializableAc.o (.const:.typeinfo:_ZTIN2Fw6BufferE)
                  000a6ae4    0000000c     libFwPort.a : PortBase.o (.const:.typeinfo:_ZTIN2Fw8PortBaseE)
                  000a6af0    0000000c     libFwCmd.a : CmdPacket.o (.const:.typeinfo:_ZTIN2Fw9CmdPacketE)
                  000a6afc    0000000c     libFwCom.a : ComBuffer.o (.const:.typeinfo:_ZTIN2Fw9ComBufferE)
                  000a6b08    0000000c                : ComPacket.o (.const:.typeinfo:_ZTIN2Fw9ComPacketE)
                  000a6b14    0000000c     libFwLog.a : LogBuffer.o (.const:.typeinfo:_ZTIN2Fw9LogBufferE)
                  000a6b20    0000000c                : LogPacket.o (.const:.typeinfo:_ZTIN2Fw9LogPacketE)
                  000a6b2c    0000000c     libFwTlm.a : TlmBuffer.o (.const:.typeinfo:_ZTIN2Fw9TlmBufferE)
                  000a6b38    0000000c                : TlmPacket.o (.const:.typeinfo:_ZTIN2Fw9TlmPacketE)
                  000a6b44    0000000c     libOs.a : TaskString.o (.const:.typeinfo:_ZTIN2Os10TaskStringE)
                  000a6b50    0000000c             : QueueString.o (.const:.typeinfo:_ZTIN2Os11QueueStringE)
                  000a6b5c    0000000c     libDrvDataTypes.a : DataBuffer.o (.const:.typeinfo:_ZTIN3Drv10DataBufferE)
                  000a6b68    0000000c     libDrvBlockDriver.a : BlockDriverImpl.o (.const:.typeinfo:_ZTIN3Drv15BlockDriverImplE)
                  000a6b74    0000000c     libDrvDataTypes.a : DataBufferPortAc.o (.const:.typeinfo:_ZTIN3Drv19InputDataBufferPortE)
                  000a6b80    0000000c                       : DataBufferPortAc.o (.const:.typeinfo:_ZTIN3Drv20OutputDataBufferPortE)
                  000a6b8c    0000000c     libDrvBlockDriver.a : BlockDriverComponentAc.o (.const:.typeinfo:_ZTIN3Drv24BlockDriverComponentBaseE)
                  000a6b98    0000000c     libDrvDataTypes.a : DataBufferPortAc.o (.const:.typeinfo:_ZTIN3Drv44_GLOBAL__N__20_DataBufferPortAc_cpp_def37a2520DataBufferPortBufferE)
                  000a6ba4    0000000c     libDrvBlockDriver.a : BlockDriverComponentAc.o (.const:.typeinfo:_ZTIN3Drv50_GLOBAL__N__26_BlockDriverComponentAc_cpp_ac3b9f6530ComponentIpcSerializableBufferE)
                  000a6bb0    0000000c     libSvcTlmChan.a : TlmChanImpl.o (.const:.typeinfo:_ZTIN3Svc11TlmChanImplE)
                  000a6bbc    0000000c     libSvcPing.a : PingPortAc.o (.const:.typeinfo:_ZTIN3Svc13InputPingPortE)
                  000a6bc8    0000000c     libSvcCycle.a : CyclePortAc.o (.const:.typeinfo:_ZTIN3Svc14InputCyclePortE)
                  000a6bd4    0000000c     libSvcSched.a : SchedPortAc.o (.const:.typeinfo:_ZTIN3Svc14InputSchedPortE)
                  000a6be0    0000000c     libSvcPing.a : PingPortAc.o (.const:.typeinfo:_ZTIN3Svc14OutputPingPortE)
                  000a6bec    0000000c     libSvcCycle.a : CyclePortAc.o (.const:.typeinfo:_ZTIN3Svc15OutputCyclePortE)
                  000a6bf8    0000000c     libSvcSched.a : SchedPortAc.o (.const:.typeinfo:_ZTIN3Svc15OutputSchedPortE)
                  000a6c04    0000000c     libSvcActiveLogger.a : ActiveLoggerImpl.o (.const:.typeinfo:_ZTIN3Svc16ActiveLoggerImplE)
                  000a6c10    0000000c     libSvcLinuxTime.a : CubeRoverTimeImpl.o (.const:.typeinfo:_ZTIN3Svc17CubeRoverTimeImplE)
                  000a6c1c    0000000c     libSvcWatchDog.a : WatchDogPortAc.o (.const:.typeinfo:_ZTIN3Svc17InputWatchDogPortE)
                  000a6c28    0000000c     libSvcTime.a : TimeComponentAc.o (.const:.typeinfo:_ZTIN3Svc17TimeComponentBaseE)
                  000a6c34    0000000c     libSvcWatchDog.a : WatchDogPortAc.o (.const:.typeinfo:_ZTIN3Svc18OutputWatchDogPortE)
                  000a6c40    0000000c     libSvcActiveRateGroup.a : ActiveRateGroupImpl.o (.const:.typeinfo:_ZTIN3Svc19ActiveRateGroupImplE)
                  000a6c4c    0000000c     libSvcFatal.a : FatalEventPortAc.o (.const:.typeinfo:_ZTIN3Svc19InputFatalEventPortE)
                  000a6c58    0000000c     libSvcRateGroupDriver.a : RateGroupDriverImpl.o (.const:.typeinfo:_ZTIN3Svc19RateGroupDriverImplE)
                  000a6c64    0000000c     libSvcFatal.a : FatalEventPortAc.o (.const:.typeinfo:_ZTIN3Svc20OutputFatalEventPortE)
                  000a6c70    0000000c     libSvcTlmChan.a : TlmChanComponentAc.o (.const:.typeinfo:_ZTIN3Svc20TlmChanComponentBaseE)
                  000a6c7c    0000000c     libSvcCmdDispatcher.a : CommandDispatcherImpl.o (.const:.typeinfo:_ZTIN3Svc21CommandDispatcherImplE)
                  000a6c88    0000000c     libSvcActiveLogger.a : ActiveLoggerComponentAc.o (.const:.typeinfo:_ZTIN3Svc25ActiveLoggerComponentBaseE)
                  000a6c94    0000000c     libSvcActiveRateGroup.a : ActiveRateGroupComponentAc.o (.const:.typeinfo:_ZTIN3Svc28ActiveRateGroupComponentBaseE)
                  000a6ca0    0000000c     libSvcRateGroupDriver.a : RateGroupDriverComponentAc.o (.const:.typeinfo:_ZTIN3Svc28RateGroupDriverComponentBaseE)
                  000a6cac    0000000c     libSvcCmdDispatcher.a : CommandDispatcherComponentAc.o (.const:.typeinfo:_ZTIN3Svc30CommandDispatcherComponentBaseE)
                  000a6cb8    0000000c     libSvcPing.a : PingPortAc.o (.const:.typeinfo:_ZTIN3Svc38_GLOBAL__N__14_PingPortAc_cpp_70bc9b9c14PingPortBufferE)
                  000a6cc4    0000000c     libSvcCycle.a : CyclePortAc.o (.const:.typeinfo:_ZTIN3Svc39_GLOBAL__N__15_CyclePortAc_cpp_738d314115CyclePortBufferE)
                  000a6cd0    0000000c     libSvcSched.a : SchedPortAc.o (.const:.typeinfo:_ZTIN3Svc39_GLOBAL__N__15_SchedPortAc_cpp_e9ea2acb15SchedPortBufferE)
                  000a6cdc    0000000c     libSvcWatchDog.a : WatchDogPortAc.o (.const:.typeinfo:_ZTIN3Svc42_GLOBAL__N__18_WatchDogPortAc_cpp_af8886e518WatchDogPortBufferE)
                  000a6ce8    0000000c     libSvcFatal.a : FatalEventPortAc.o (.const:.typeinfo:_ZTIN3Svc44_GLOBAL__N__20_FatalEventPortAc_cpp_dd6dfaa620FatalEventPortBufferE)
                  000a6cf4    0000000c     libSvcTlmChan.a : TlmChanComponentAc.o (.const:.typeinfo:_ZTIN3Svc46_GLOBAL__N__22_TlmChanComponentAc_cpp_8e78a87130ComponentIpcSerializableBufferE)
                  000a6d00    0000000c     libSvcActiveLogger.a : ActiveLoggerComponentAc.o (.const:.typeinfo:_ZTIN3Svc51_GLOBAL__N__27_ActiveLoggerComponentAc_cpp_980eb92130ComponentIpcSerializableBufferE)
                  000a6d0c    0000000c     libSvcActiveRateGroup.a : ActiveRateGroupComponentAc.o (.const:.typeinfo:_ZTIN3Svc54_GLOBAL__N__30_ActiveRateGroupComponentAc_cpp_d117e47830ComponentIpcSerializableBufferE)
                  000a6d18    0000000c     libSvcCmdDispatcher.a : CommandDispatcherComponentAc.o (.const:.typeinfo:_ZTIN3Svc56_GLOBAL__N__32_CommandDispatcherComponentAc_cpp_5537c58630ComponentIpcSerializableBufferE)
                  000a6d24    0000000c     libSvcCycle.a : TimerVal.o (.const:.typeinfo:_ZTIN3Svc8TimerValE)
                  000a6d30    0000000c     Wf121RxTask.obj (.const:.typeinfo:_ZTIN5Wf12111Wf121RxTaskE)
                  000a6d3c    0000000c     Wf121UdpTxTask.obj (.const:.typeinfo:_ZTIN5Wf12114Wf121UdpTxTaskE)
                  000a6d48    0000000c     Wf121BgApiPassthroughTxTask.obj (.const:.typeinfo:_ZTIN5Wf12127Wf121BgApiPassthroughTxTaskE)
                  000a6d54    0000000c     WatchDogRxTask.obj (.const:.typeinfo:_ZTIN9CubeRover14WatchDogRxTaskE)
                  000a6d60    0000000c     IMUComponentAc.obj (.const:.typeinfo:_ZTIN9CubeRover16IMUComponentBaseE)
                  000a6d6c    0000000c     IMUComponent.obj (.const:.typeinfo:_ZTIN9CubeRover16IMUComponentImplE)
                  000a6d78    0000000c     CameraComponentAc.obj (.const:.typeinfo:_ZTIN9CubeRover19CameraComponentBaseE)
                  000a6d84    0000000c     Camera.obj (.const:.typeinfo:_ZTIN9CubeRover19CameraComponentImplE)
                  000a6d90    0000000c     FileDownlinkPortAc.obj (.const:.typeinfo:_ZTIN9CubeRover21InputFileDownlinkPortE)
                  000a6d9c    0000000c     FileDownlinkPortAc.obj (.const:.typeinfo:_ZTIN9CubeRover22OutputFileDownlinkPortE)
                  000a6da8    0000000c     NavigationComponentAc.obj (.const:.typeinfo:_ZTIN9CubeRover23NavigationComponentBaseE)
                  000a6db4    0000000c     NavigationComponent.obj (.const:.typeinfo:_ZTIN9CubeRover23NavigationComponentImplE)
                  000a6dc0    0000000c     MotorControlComponentAc.obj (.const:.typeinfo:_ZTIN9CubeRover25MotorControlComponentBaseE)
                  000a6dcc    0000000c     MotorControlComponent.obj (.const:.typeinfo:_ZTIN9CubeRover25MotorControlComponentImplE)
                  000a6dd8    0000000c     CameraTakePicturePortAc.obj (.const:.typeinfo:_ZTIN9CubeRover26InputCameraTakePicturePortE)
                  000a6de4    0000000c     NetworkManagerComponentAc.obj (.const:.typeinfo:_ZTIN9CubeRover27NetworkManagerComponentBaseE)
                  000a6df0    0000000c     CameraTakePicturePortAc.obj (.const:.typeinfo:_ZTIN9CubeRover27OutputCameraTakePicturePortE)
                  000a6dfc    0000000c     GroundInterfaceComponentAc.obj (.const:.typeinfo:_ZTIN9CubeRover28GroundInterfaceComponentBaseE)
                  000a6e08    0000000c     GroundInterface.obj (.const:.typeinfo:_ZTIN9CubeRover28GroundInterfaceComponentImplE)
                  000a6e14    0000000c     WatchDogInterfaceComponentAc.obj (.const:.typeinfo:_ZTIN9CubeRover30WatchDogInterfaceComponentBaseE)
                  000a6e20    0000000c     FileDownlinkPortAc.obj (.const:.typeinfo:_ZTIN9CubeRover46_GLOBAL__N__22_FileDownlinkPortAc_cpp_337b708822FileDownlinkPortBufferE)
                  000a6e2c    0000000c     NavigationComponentAc.obj (.const:.typeinfo:_ZTIN9CubeRover49_GLOBAL__N__25_NavigationComponentAc_cpp_b9b8723430ComponentIpcSerializableBufferE)
                  000a6e38    0000000c     CameraTakePicturePortAc.obj (.const:.typeinfo:_ZTIN9CubeRover51_GLOBAL__N__27_CameraTakePicturePortAc_cpp_d22da41c27CameraTakePicturePortBufferE)
                  000a6e44    0000000c     WatchDogInterfaceComponentAc.obj (.const:.typeinfo:_ZTIN9CubeRover56_GLOBAL__N__32_WatchDogInterfaceComponentAc_cpp_843fad5030ComponentIpcSerializableBufferE)
                  000a6e50    0000000c     libOs.a : Mutex.o (.const:.typeinfo:_ZTSN2Os5MutexE)
                  000a6e5c    0000000c             : Queue.o (.const:.typeinfo:_ZTSN2Os5QueueE)
                  000a6e68    0000000b     libFwTime.a : Time.o (.const:.typeinfo:_ZTSN2Fw4TimeE)
                  000a6e73    0000000b     libOs.a : File.o (.const:.typeinfo:_ZTSN2Os4FileE)
                  000a6e7e    0000000b             : Task.o (.const:.typeinfo:_ZTSN2Os4TaskE)
                  000a6e89    0000000a     Wf121DirectMessage.obj (.const:.string:_ZN44_INTERNAL_22_Wf121DirectMessage_cpp_4cfed4345Wf12113DirectMessage27STATE_REF_BUFFER__CONNECTEDE)
                  000a6e93    00000001     --HOLE-- [fill = 0]
                  000a6e94    00000008     Wf121BgApiPassthroughTxTask.obj (.const:$P$T4$1)
                  000a6e9c    00000008     Wf121DirectMessage.obj (.const:.string:_ZN44_INTERNAL_22_Wf121DirectMessage_cpp_4cfed4345Wf12113DirectMessage25STATE_REF_BUFFER__WIFI_ONE)
                  000a6ea4    00000008     libFwTypes.a : Serializable.o (.const:.typeinfo:_ZTIN2Fw12SerializableE)
                  000a6eac    00000008                  : Serializable.o (.const:.typeinfo:_ZTIN2Fw19SerializeBufferBaseE)
                  000a6eb4    00000008     libFwObj.a : ObjBase.o (.const:.typeinfo:_ZTIN2Fw7ObjBaseE)
                  000a6ebc    00000008     libOs.a : TaskCommon.o (.const:.typeinfo:_ZTIN2Os12TaskRegistryE)
                  000a6ec4    00000008             : IntervalTimer.o (.const:.typeinfo:_ZTIN2Os13IntervalTimerE)
                  000a6ecc    00000008             : File.o (.const:.typeinfo:_ZTIN2Os4FileE)
                  000a6ed4    00000008             : Task.o (.const:.typeinfo:_ZTIN2Os4TaskE)
                  000a6edc    00000008             : Mutex.o (.const:.typeinfo:_ZTIN2Os5MutexE)
                  000a6ee4    00000008             : Queue.o (.const:.typeinfo:_ZTIN2Os5QueueE)
                  000a6eec    00000008     NetworkInterface.obj (.const:.typeinfo:_ZTIN5Wf12111RadioStatusE)
                  000a6ef4    00000008     Wf121DirectMessage.obj (.const:.typeinfo:_ZTIN5Wf12113DirectMessage19DirectMessageDriverE)
                  000a6efc    00000008     NetworkInterface.obj (.const:.typeinfo:_ZTIN5Wf12118Wf121TxTaskManagerE)
                  000a6f04    00000008     Wf121.obj (.const:.typeinfo:_ZTIN5Wf12124Wf121RxCallbackProcessorE)
                  000a6f0c    00000008     NetworkInterface.obj (.const:.typeinfo:_ZTIN5Wf1215BgApi11BgApiDriverE)
                  000a6f14    00000008     WatchDogInterface.obj (.const:.typeinfo:_ZTIN9CubeRover27WatchDogRxCallbackProcessorE)
                  000a6f1c    00000008     NetworkManager.obj (.const:.typeinfo:_ZTIN9CubeRover36WatchDogInterfaceComponentBaseFriendE)
                  000a6f24    00000008     rtsv7R4_T_le_v3D16_eabi.lib : stdlib_typeinfo.cpp.obj (.const:.typeinfo:_ZTISt9type_info)
                  000a6f2c    00000007     Wf121DirectMessage.obj (.const:.string:_ZN44_INTERNAL_22_Wf121DirectMessage_cpp_4cfed4345Wf12113DirectMessage12DOING_HEADERE)
                  000a6f33    00000007     Wf121DirectMessage.obj (.const:.string:_ZN44_INTERNAL_22_Wf121DirectMessage_cpp_4cfed4345Wf12113DirectMessage12ERROR_HEADERE)
                  000a6f3a    00000007     Wf121DirectMessage.obj (.const:.string:_ZN44_INTERNAL_22_Wf121DirectMessage_cpp_4cfed4345Wf12113DirectMessage12FAULT_HEADERE)
                  000a6f41    00000007     Wf121DirectMessage.obj (.const:.string:_ZN44_INTERNAL_22_Wf121DirectMessage_cpp_4cfed4345Wf12113DirectMessage12STATE_HEADERE)
                  000a6f48    00000007     Wf121DirectMessage.obj (.const:.string:_ZN44_INTERNAL_22_Wf121DirectMessage_cpp_4cfed4345Wf12113DirectMessage16HEARTBEAT_HEADERE)
                  000a6f4f    00000007     Wf121DirectMessage.obj (.const:.string:_ZN44_INTERNAL_22_Wf121DirectMessage_cpp_4cfed4345Wf12113DirectMessage16INTERLOCK_HEADERE)
                  000a6f56    00000006     NetworkInterface.obj (.const:.string:$P$T21$4)
                  000a6f5c    00000005     Wf121Parser.obj (.const:.string:_ZN37_INTERNAL_15_Wf121Parser_cpp_b5afec0f5Wf12111Wf121Parser22bgapiPassthroughPrefixE)
                  000a6f61    00000005     Wf121DirectMessage.obj (.const:.string:_ZN44_INTERNAL_22_Wf121DirectMessage_cpp_4cfed4345Wf12113DirectMessage22STATE_REF_BUFFER__BOOTE)
                  000a6f66    00000005     Wf121DirectMessage.obj (.const:.string:_ZN44_INTERNAL_22_Wf121DirectMessage_cpp_4cfed4345Wf12113DirectMessage22STATE_REF_BUFFER__INITE)
                  000a6f6b    00000004     Wf121Parser.obj (.const:.string:_ZN37_INTERNAL_15_Wf121Parser_cpp_b5afec0f5Wf12111Wf121Parser9DM_HEADERE)
                  000a6f6f    00000004     Wf121DirectMessage.obj (.const:.string:_ZN44_INTERNAL_22_Wf121DirectMessage_cpp_4cfed4345Wf12113DirectMessage37ILOCK_REF_BUFFER__RADIO_HAS_INTERLOCKE)
                  000a6f73    00000004     MotorControlComponent.obj (.const:.string:_ZN9CubeRover25MotorControlComponentImpl17motorIdAddressMapE)

.init_array 
*          0    000a6f78    00000010     
                  000a6f78    00000004     Wf121SerialInterface.obj (.init_array)
                  000a6f7c    00000004     Wf121.obj (.init_array)
                  000a6f80    00000004     Topology.obj (.init_array)
                  000a6f84    00000004     NetworkManager.obj (.init_array)

.kernelBSS 
*          0    08001400    00000320     UNINITIALIZED
                  08001400    000002ec     os_tasks.obj (.kernelBSS:uninit)
                  080016ec    00000034     os_tasks.obj (.kernelBSS:init)

.bss       0    08001c00    000199f8     UNINITIALIZED
                  08001c00    00007a6c     Topology.obj (.bss:tlmChan)
                  0800966c    00002d50     Topology.obj (.bss:activeLogger)
                  0800c3bc    00000004     NetworkManager.obj (.bss)
                  0800c3c0    00001dc8     NetworkManager.obj (.bss:_ZN40_INTERNAL_18_NetworkManager_cpp_d876f1289CubeRover17CORE_RADIO_DRIVERE)
                  0800e188    00001a6c     Topology.obj (.bss:camera)
                  0800fbf4    000015ac     Topology.obj (.bss:cmdDispatcher)
                  080111a0    00001568     Topology.obj (.bss:groundInterface)
                  08012708    00001360     NetworkInterface.obj (.bss:_ZN42_INTERNAL_20_NetworkInterface_cpp_5259f4cc5Wf12130ucUdpTxPayloadQueueStorageAreaE)
                  08013a68    00001200     Main.obj (.bss:uxIdleTaskStack$2)
                  08014c68    00000fb0     Topology.obj (.bss:networkManager)
                  08015c18    00000e18     Topology.obj (.bss:watchDogInterface)
                  08016a30    00000ba0     NetworkInterface.obj (.bss:_ZN42_INTERNAL_20_NetworkInterface_cpp_5259f4cc5Wf12130ucUdpRxPayloadQueueStorageAreaE)
                  080175d0    00000910     Topology.obj (.bss:navigation)
                  08017ee0    00000768     Topology.obj (.bss:motorControl)
                  08018648    00000768     Topology.obj (.bss:rateGroupHiFreq)
                  08018db0    00000768     Topology.obj (.bss:rateGroupLowFreq)
                  08019518    00000768     Topology.obj (.bss:rateGroupMedFreq)
                  08019c80    000006a4     Topology.obj (.bss:IMU)
                  0801a324    000005a8     Topology.obj (.bss:blockDriver)
                  0801a8cc    000002bc     Topology.obj (.bss:rateGroupDriver)
                  0801ab88    000001f8     Wf121BgApiPassthroughTxTask.obj (.bss:_ZN53_INTERNAL_31_Wf121BgApiPassthroughTxTask_cpp_babfb2ef5Wf12132ucBgApiTxMessageQueueStorageAreaE)
                  0801ad80    00000120     rtsv7R4_T_le_v3D16_eabi.lib : trgmsg.c.obj (.bss:_CIOBUF_)
                  0801aea0    00000110     Topology.obj (.bss:cubeRoverTime)
                  0801afb0    000000c0     WatchDogRxTask.obj (.bss:_ZN40_INTERNAL_18_WatchDogRxTask_cpp_4258c70b9CubeRover13rxByteUpdatesE)
                  0801b070    000000b4     Main.obj (.bss:xIdleTaskTCB$1)
                  0801b124    000000a0     (.common:__TI_tmpnams)
                  0801b1c4    00000078     spi.obj (.bss:g_spiPacket_t)
                  0801b23c    00000050     NetworkInterface.obj (.bss:_ZN42_INTERNAL_20_NetworkInterface_cpp_5259f4cc5Wf12124xUdpRxPayloadStaticQueueE)
                  0801b28c    00000050     NetworkInterface.obj (.bss:_ZN42_INTERNAL_20_NetworkInterface_cpp_5259f4cc5Wf12124xUdpTxPayloadStaticQueueE)
                  0801b2dc    00000050     Wf121SerialInterface.obj (.bss:_ZN46_INTERNAL_24_Wf121SerialInterface_cpp_12cc02e95Wf12111Wf121Serial41xSemaphoreBuffer_dmaWriteStatus_writeDoneE)
                  0801b32c    00000050     UdpTxCommsStatusManager.obj (.bss:_ZN49_INTERNAL_27_UdpTxCommsStatusManager_cpp_edccdbc75Wf12137xStaticQueue_GetUdpInterlock_ResponseE)
                  0801b37c    00000050     UdpTxCommsStatusManager.obj (.bss:_ZN49_INTERNAL_27_UdpTxCommsStatusManager_cpp_edccdbc75Wf12137xStaticQueue_SendEndpointUdp_ResponseE)
                  0801b3cc    00000050     UdpTxCommsStatusManager.obj (.bss:_ZN49_INTERNAL_27_UdpTxCommsStatusManager_cpp_edccdbc75Wf12137xStaticQueue_SetTransmitSize_ResponseE)
                  0801b41c    00000050     Wf121BgApiPassthroughTxTask.obj (.bss:_ZN53_INTERNAL_31_Wf121BgApiPassthroughTxTask_cpp_babfb2ef5Wf12125xBgApiTxStatusStaticQueueE)
                  0801b46c    00000050     Wf121BgApiPassthroughTxTask.obj (.bss:_ZN53_INTERNAL_31_Wf121BgApiPassthroughTxTask_cpp_babfb2ef5Wf12126xBgApiTxMessageStaticQueueE)
                  0801b4bc    00000028     sci.obj (.bss:g_sciTransfer_t)
                  0801b4e4    00000024     Wf121SerialInterface.obj (.bss:_ZN46_INTERNAL_24_Wf121SerialInterface_cpp_12cc02e95Wf12111Wf121Serial14dmaWriteStatusE)
                  0801b508    00000020     Wf121BgApiPassthroughTxTask.obj (.bss:_ZN53_INTERNAL_31_Wf121BgApiPassthroughTxTask_cpp_babfb2ef5Wf12131ucBgApiTxStatusQueueStorageAreaE)
                  0801b528    00000020     (.common:_ZN9CubeRover12m_moveRecordE)
                  0801b548    0000001c     rtsv7R4_T_le_v3D16_eabi.lib : vla_alloc.c.obj (.bss:$O1$$)
                  0801b564    0000001c     WatchDogInterface.obj (.bss)
                  0801b580    0000000c     i2c.obj (.bss:g_i2cTransfer_t)
                  0801b58c    00000008     Wf121.obj (.bss:_ZN30_INTERNAL_9_Wf121_cpp_ab84aabb5Wf12134persistent_bgapi_passthrough_mutexE)
                  0801b594    00000008     Wf121SerialInterface.obj (.bss:_ZN46_INTERNAL_24_Wf121SerialInterface_cpp_12cc02e95Wf12111Wf121Serial31persistent_wf121_sci_baud_mutexE)
                  0801b59c    00000008     NetworkManager.obj (.bss:_ZZN9CubeRover27NetworkManagerComponentImpl16downlink_handlerEiRN2Fw6BufferEE29sloppyResourceProtectionMutex)
                  0801b5a4    00000008     WatchDogInterface.obj (.bss:_ZZN9CubeRover30WatchDogInterfaceComponentImpl17debugPrintfBufferEPhjE29sloppyResourceProtectionMutex)
                  0801b5ac    00000008     WatchDogInterface.obj (.bss:_ZZN9CubeRover30WatchDogInterfaceComponentImpl21debugPrintfToWatchdogEPKczE29sloppyResourceProtectionMutex)
                  0801b5b4    00000008     WatchDogInterface.obj (.bss:_ZZN9CubeRover30WatchDogInterfaceComponentImpl27debugPrintfBufferWithPrefixEPhjS1_jE29sloppyResourceProtectionMutex)
                  0801b5bc    00000008     WatchDogInterface.obj (.bss:_ZZN9CubeRover30WatchDogInterfaceComponentImpl7dmaSendEPvibE23resourceProtectionMutex)
                  0801b5c4    00000008     WatchDogInterface.obj (.bss:_ZZN9CubeRover30WatchDogInterfaceComponentImpl9txCommandEtjtPhjbE29sloppyResourceProtectionMutex)
                  0801b5cc    00000008     os_heap.obj (.bss:xStart)
                  0801b5d4    00000008     (.common:parmbuf)
                  0801b5dc    00000004     WatchDogRxTask.obj (.bss)
                  0801b5e0    00000004     Wf121RxTask.obj (.bss)
                  0801b5e4    00000004     UdpTxCommsStatusManager.obj (.bss:_ZN49_INTERNAL_27_UdpTxCommsStatusManager_cpp_edccdbc75Wf12143ucQueueStorageArea_GetUdpInterlock_ResponseE)
                  0801b5e8    00000004     UdpTxCommsStatusManager.obj (.bss:_ZN49_INTERNAL_27_UdpTxCommsStatusManager_cpp_edccdbc75Wf12143ucQueueStorageArea_SendEndpointUdp_ResponseE)
                  0801b5ec    00000004     UdpTxCommsStatusManager.obj (.bss:_ZN49_INTERNAL_27_UdpTxCommsStatusManager_cpp_edccdbc75Wf12143ucQueueStorageArea_SetTransmitSize_ResponseE)
                  0801b5f0    00000004     rtsv7R4_T_le_v3D16_eabi.lib : new.cpp.obj (.bss)
                  0801b5f4    00000004     (.common:__dso_handle)

.kernelHEAP 
*          0    0801b5f8    0000fa00     UNINITIALIZED
                  0801b5f8    0000fa00     os_heap.obj (.kernelHEAP)

.sysmem    0    0802aff8    00004000     UNINITIALIZED
                  0802aff8    00000010     rtsv7R4_T_le_v3D16_eabi.lib : memory.c.obj (.sysmem)
                  0802b008    00003ff0     --HOLE--

.data      0    0802eff8    000002a6     UNINITIALIZED
                  0802eff8    000000f0     rtsv7R4_T_le_v3D16_eabi.lib : defs.c.obj (.data:_ftable)
                  0802f0e8    00000078                                 : host_device.c.obj (.data:_device)
                  0802f160    00000050                                 : host_device.c.obj (.data:_stream)
                  0802f1b0    00000010     WatchDogRxTask.obj (.data)
                  0802f1c0    00000010     os_heap.obj (.data)
                  0802f1d0    00000010     Topology.obj (.data:rgHiFreqContext)
                  0802f1e0    00000010     Topology.obj (.data:rgLoFreqContext)
                  0802f1f0    00000010     Topology.obj (.data:rgMedFreqContext)
                  0802f200    00000010     rtsv7R4_T_le_v3D16_eabi.lib : defs.c.obj (.data)
                  0802f210    0000000c                                 : exit.c.obj (.data:$O1$$)
                  0802f21c    0000000c     Topology.obj (.data:rgDivs)
                  0802f228    00000008     libOs.a : QueueCommon.o (.data:$O1$$)
                  0802f230    00000008             : TaskCommon.o (.data:$O1$$)
                  0802f238    00000008     rtsv7R4_T_le_v3D16_eabi.lib : _lock.c.obj (.data:$O1$$)
                  0802f240    00000008                                 : memory.c.obj (.data:$O1$$)
                  0802f248    00000008     WatchDogInterface.obj (.data)
                  0802f250    00000008     Wf121SerialInterface.obj (.data)
                  0802f258    00000008     os_port.obj (.data)
                  0802f260    00000005     Topology.obj (.data)
                  0802f265    00000002     NetworkManager.obj (.data)
                  0802f267    00000001     NetworkInterface.obj (.data)
                  0802f268    00000005     Wf121RxTask.obj (.data)
                  0802f26d    00000002     Wf121Parser.obj (.data)
                  0802f26f    00000001     adxl312.obj (.data:g_adxl312_bw_rate)
                  0802f270    00000004     UdpTxCommsStatusManager.obj (.data)
                  0802f274    00000004     Wf121BgApiPassthroughTxTask.obj (.data)
                  0802f278    00000004     Wf121UdpTxTask.obj (.data)
                  0802f27c    00000004     NetworkInterface.obj (.data:_ZZN5Wf12116NetworkInterface18udpTxUpdateHandlerEPNS_14Wf121UdpTxTaskEE11inner_state)
                  0802f280    00000004     adxl312.obj (.data)
                  0802f284    00000004     adxl312.obj (.data:dataConfig)
                  0802f288    00000004     l3gd20h.obj (.data:dataConfig)
                  0802f28c    00000004     l3gd20h.obj (.data)
                  0802f290    00000004     libFwObj.a : ObjBase.o (.data)
                  0802f294    00000004     rtsv7R4_T_le_v3D16_eabi.lib : dtor_list.c.obj (.data)
                  0802f298    00000004                                 : errno.c.obj (.data)
                  0802f29c    00000001     adxl312.obj (.data:g_adxl312_data_format)
                  0802f29d    00000001     adxl312.obj (.data:g_adxl312_power_mode)

.TI.persistent 
*          0    0802f2a0    00000009     
                  0802f2a0    00000004     Wf121.obj (.TI.persistent)
                  0802f2a4    00000004     Wf121SerialInterface.obj (.TI.persistent)
                  0802f2a8    00000001     GroundInterface.obj (.TI.persistent)

MODULE SUMMARY

       Module                             code     ro data   rw data
       ------                             ----     -------   -------
    ./App/
       Main.obj                           240      0         4820   
       DMA.obj                            1468     0         0      
       SPI.obj                            852      0         0      
       SCI.obj                            40       0         0      
       SCILIN.obj                         40       0         0      
    +--+----------------------------------+--------+---------+---------+
       Total:                             2640     0         4820   
                                                                    
    ./CubeRover/Camera/
       CameraComponentAc.obj              17820    114       0      
       S25fl512l.obj                      4852     0         0      
       Camera.obj                         2280     114       0      
    +--+----------------------------------+--------+---------+---------+
       Total:                             24952    228       0      
                                                                    
    ./CubeRover/CubeRoverPorts/CameraTakePicture/
       CameraTakePicturePortAc.obj        3472     294       0      
    +--+----------------------------------+--------+---------+---------+
       Total:                             3472     294       0      
                                                                    
    ./CubeRover/CubeRoverPorts/FileDownlink/
       FileDownlinkPortAc.obj             3748     274       0      
    +--+----------------------------------+--------+---------+---------+
       Total:                             3748     274       0      
                                                                    
    ./CubeRover/CubeRoverPorts/IMUData/
       IMUDataPortAc.obj                  3652     272       0      
    +--+----------------------------------+--------+---------+---------+
       Total:                             3652     272       0      
                                                                    
    ./CubeRover/CubeRoverPorts/MotorCommand/
       MotorCommandPortAc.obj             4108     292       0      
    +--+----------------------------------+--------+---------+---------+
       Total:                             4108     292       0      
                                                                    
    ./CubeRover/CubeRoverPorts/MotorData/
       MotorDataPortAc.obj                3020     280       0      
    +--+----------------------------------+--------+---------+---------+
       Total:                             3020     280       0      
                                                                    
    ./CubeRover/CubeRoverPorts/WatchdogResetRequest/
       WatchdogResetRequestPortAc.obj     3256     324       0      
    +--+----------------------------------+--------+---------+---------+
       Total:                             3256     324       0      
                                                                    
    ./CubeRover/GroundInterface/
       GroundInterfaceComponentAc.obj     30616    111       0      
       GroundInterface.obj                4896     127       1      
    +--+----------------------------------+--------+---------+---------+
       Total:                             35512    238       1      
                                                                    
    ./CubeRover/IMU/
       IMUComponentAc.obj                 18592    91        0      
       IMUComponent.obj                   1172     91        0      
       adxl312.obj                        612      0         11     
       l3gd20h.obj                        336      3         8      
    +--+----------------------------------+--------+---------+---------+
       Total:                             20712    185       19     
                                                                    
    ./CubeRover/MotorControl/
       MotorControlComponentAc.obj        28608    124       0      
       MotorControlComponent.obj          5528     128       0      
       MotorController_i2c.obj            1008     0         0      
    +--+----------------------------------+--------+---------+---------+
       Total:                             35144    252       0      
                                                                    
    ./CubeRover/Navigation/
       NavigationComponentAc.obj          28656    274       0      
       NavigationComponent.obj            3032     138       0      
    +--+----------------------------------+--------+---------+---------+
       Total:                             31688    412       0      
                                                                    
    ./CubeRover/NetworkManager/
       NetworkManagerComponentAc.obj      29364    110       0      
       NetworkManager.obj                 5068     217       7638   
    +--+----------------------------------+--------+---------+---------+
       Total:                             34432    327       7638   
                                                                    
    ./CubeRover/Top/
       Topology.obj                       1596     4         82445  
       CubeRoverTopologyAppAc.obj         2656     0         0      
    +--+----------------------------------+--------+---------+---------+
       Total:                             4252     4         82445  
                                                                    
    ./CubeRover/WatchDogInterface/
       WatchDogInterfaceComponentAc.obj   103872   468       0      
       WatchDogInterface.obj              7868     531       76     
       WatchDogMpsm.obj                   2928     0         0      
       WatchDogRxTask.obj                 1872     57        212    
    +--+----------------------------------+--------+---------+---------+
       Total:                             116540   1056      288    
                                                                    
    ./CubeRover/Wf121/
       NetworkInterface.obj               11976    1140      8101   
       Wf121BgApiCommands.obj             12564    0         0      
       Wf121BgApi.obj                     11780    604       0      
       Wf121DirectMessage.obj             2900     267       0      
       Wf121Parser.obj                    2928     9         2      
       Wf121SerialInterface.obj           2308     4         136    
       Wf121BgApiPassthroughTxTask.obj    1520     74        700    
       UdpTxCommsStatusManager.obj        1476     0         256    
       Wf121.obj                          1468     153       12     
       Wf121RxTask.obj                    1248     50        9      
       Wf121UdpTxTask.obj                 708      53        4      
    +--+----------------------------------+--------+---------+---------+
       Total:                             50876    2354      9220   
                                                                    
    ./HAL/source/
       os_heap.obj                        1528     0         64024  
       os_tasks.obj                       14040    0         800    
       sys_selftest.obj                   11484    0         0      
       os_queue.obj                       5384     0         0      
       spi.obj                            4624     0         120    
       sys_vim.obj                        3364     512       0      
       adc.obj                            3768     48        0      
       sci.obj                            3732     0         40     
       os_mpu_wrappers.obj                2988     0         0      
       system.obj                         2936     0         0      
       i2c.obj                            2264     0         12     
       os_event_groups.obj                2260     0         0      
       pinmux.obj                         2244     0         0      
       sys_dma.obj                        1904     0         0      
       esm.obj                            1744     0         0      
       errata_SSWF021_45.obj              1636     0         0      
       rti.obj                            1592     0         0      
       os_port.obj                        1428     0         8      
       os_portasm.obj                     1212     0         0      
       gio.obj                            1156     0         0      
       sys_core.obj                       844      0         0      
       sys_mpu.obj                        728      0         0      
       sys_startup.obj                    660      0         0      
       os_list.obj                        568      0         0      
       notification.obj                   492      0         0      
       dabort.obj                         232      0         0      
       sys_pmu.obj                        224      0         0      
       sys_intvecs.obj                    32       0         0      
       sys_phantom.obj                    4        0         0      
    +--+----------------------------------+--------+---------+---------+
       Total:                             75072    560       65004  
                                                                    
    /home/iris/Desktop/Working_Folders/mschnur/Watchdog_MSP430/Apps/FlightSoftware/fprime/Libs/libDrvBlockDriver.a
       BlockDriverComponentAc.o           15232    240       0      
       BlockDriverImpl.o                  372      100       0      
    +--+----------------------------------+--------+---------+---------+
       Total:                             15604    340       0      
                                                                    
    /home/iris/Desktop/Working_Folders/mschnur/Watchdog_MSP430/Apps/FlightSoftware/fprime/Libs/libDrvDataTypes.a
       DataBufferPortAc.o                 2356     248       0      
       DataBuffer.o                       808      59        0      
    +--+----------------------------------+--------+---------+---------+
       Total:                             3164     307       0      
                                                                    
    /home/iris/Desktop/Working_Folders/mschnur/Watchdog_MSP430/Apps/FlightSoftware/fprime/Libs/libFwBuffer.a
       BufferSendPortAc.o                 2316     245       0      
       BufferSerializableAc.o             1016     53        0      
    +--+----------------------------------+--------+---------+---------+
       Total:                             3332     298       0      
                                                                    
    /home/iris/Desktop/Working_Folders/mschnur/Watchdog_MSP430/Apps/FlightSoftware/fprime/Libs/libFwCmd.a
       CmdResponsePortAc.o                2808     249       0      
       CmdPortAc.o                        2728     217       0      
       CmdRegPortAc.o                     2224     229       0      
       IrisCmdByteString.o                1980     84        0      
       CmdArgBuffer.o                     784      60        0      
       CmdString.o                        628      76        0      
       CmdPacket.o                        412      56        0      
    +--+----------------------------------+--------+---------+---------+
       Total:                             11564    971       0      
                                                                    
    /home/iris/Desktop/Working_Folders/mschnur/Watchdog_MSP430/Apps/FlightSoftware/fprime/Libs/libFwCom.a
       ComPortAc.o                        2468     217       0      
       ComBuffer.o                        772      56        0      
       ComPacket.o                        120      56        0      
    +--+----------------------------------+--------+---------+---------+
       Total:                             3360     329       0      
                                                                    
    /home/iris/Desktop/Working_Folders/mschnur/Watchdog_MSP430/Apps/FlightSoftware/fprime/Libs/libFwComp.a
       ActiveComponentBase.o              1112     160       0      
       PassiveComponentBase.o             348      60        0      
       QueuedComponentBase.o              292      63        0      
    +--+----------------------------------+--------+---------+---------+
       Total:                             1752     283       0      
                                                                    
    /home/iris/Desktop/Working_Folders/mschnur/Watchdog_MSP430/Apps/FlightSoftware/fprime/Libs/libFwLog.a
       LogTextPortAc.o                    3092     233       0      
       LogPortAc.o                        3012     217       0      
       LogBuffer.o                        772      56        0      
       LogString.o                        708      76        0      
       TextLogString.o                    632      77        0      
       LogPacket.o                        628      56        0      
    +--+----------------------------------+--------+---------+---------+
       Total:                             8844     715       0      
                                                                    
    /home/iris/Desktop/Working_Folders/mschnur/Watchdog_MSP430/Apps/FlightSoftware/fprime/Libs/libFwObj.a
       ObjBase.o                          228      42        4      
    +--+----------------------------------+--------+---------+---------+
       Total:                             228      42        4      
                                                                    
    /home/iris/Desktop/Working_Folders/mschnur/Watchdog_MSP430/Apps/FlightSoftware/fprime/Libs/libFwPort.a
       OutputPortBase.o                   616      58        0      
       InputPortBase.o                    372      61        0      
       PortBase.o                         216      51        0      
    +--+----------------------------------+--------+---------+---------+
       Total:                             1204     170       0      
                                                                    
    /home/iris/Desktop/Working_Folders/mschnur/Watchdog_MSP430/Apps/FlightSoftware/fprime/Libs/libFwTime.a
       TimePortAc.o                       2260     221       0      
       Time.o                             1732     51        0      
    +--+----------------------------------+--------+---------+---------+
       Total:                             3992     272       0      
                                                                    
    /home/iris/Desktop/Working_Folders/mschnur/Watchdog_MSP430/Apps/FlightSoftware/fprime/Libs/libFwTlm.a
       TlmPortAc.o                        2772     217       0      
       TlmBuffer.o                        772      56        0      
       TlmPacket.o                        628      56        0      
    +--+----------------------------------+--------+---------+---------+
       Total:                             4172     329       0      
                                                                    
    /home/iris/Desktop/Working_Folders/mschnur/Watchdog_MSP430/Apps/FlightSoftware/fprime/Libs/libFwTypes.a
       Serializable.o                     11508    190       0      
       StringType.o                       1028     74        0      
       EightyCharString.o                 620      80        0      
       BasicTypes.o                       56       0         0      
    +--+----------------------------------+--------+---------+---------+
       Total:                             13212    344       0      
                                                                    
    /home/iris/Desktop/Working_Folders/mschnur/Watchdog_MSP430/Apps/FlightSoftware/fprime/Libs/libOs.a
       TaskString.o                       628      74        0      
       Queue.o                            628      36        0      
       Task.o                             588      35        0      
       QueueString.o                      536      75        0      
       IntervalTimer.o                    284      45        0      
       TaskCommon.o                       260      52        8      
       QueueCommon.o                      248      0         8      
       Mutex.o                            164      36        0      
       File.o                             152      35        0      
    +--+----------------------------------+--------+---------+---------+
       Total:                             3488     388       16     
                                                                    
    /home/iris/Desktop/Working_Folders/mschnur/Watchdog_MSP430/Apps/FlightSoftware/fprime/Libs/libSvcActiveLogger.a
       ActiveLoggerComponentAc.o          29976    262       0      
       ActiveLoggerImpl.o                 4028     122       0      
    +--+----------------------------------+--------+---------+---------+
       Total:                             34004    384       0      
                                                                    
    /home/iris/Desktop/Working_Folders/mschnur/Watchdog_MSP430/Apps/FlightSoftware/fprime/Libs/libSvcActiveRateGroup.a
       ActiveRateGroupComponentAc.o       14008    236       0      
       ActiveRateGroupImpl.o              1180     92        0      
    +--+----------------------------------+--------+---------+---------+
       Total:                             15188    328       0      
                                                                    
    /home/iris/Desktop/Working_Folders/mschnur/Watchdog_MSP430/Apps/FlightSoftware/fprime/Libs/libSvcCmdDispatcher.a
       CommandDispatcherComponentAc.o     39788    292       0      
       CommandDispatcherImpl.o            2832     146       0      
    +--+----------------------------------+--------+---------+---------+
       Total:                             42620    438       0      
                                                                    
    /home/iris/Desktop/Working_Folders/mschnur/Watchdog_MSP430/Apps/FlightSoftware/fprime/Libs/libSvcCycle.a
       CyclePortAc.o                      2264     228       0      
       TimerVal.o                         284      56        0      
    +--+----------------------------------+--------+---------+---------+
       Total:                             2548     284       0      
                                                                    
    /home/iris/Desktop/Working_Folders/mschnur/Watchdog_MSP430/Apps/FlightSoftware/fprime/Libs/libSvcFatal.a
       FatalEventPortAc.o                 2316     248       0      
    +--+----------------------------------+--------+---------+---------+
       Total:                             2316     248       0      
                                                                    
    /home/iris/Desktop/Working_Folders/mschnur/Watchdog_MSP430/Apps/FlightSoftware/fprime/Libs/libSvcLinuxTime.a
       CubeRoverTimeImpl.o                120      62        0      
    +--+----------------------------------+--------+---------+---------+
       Total:                             120      62        0      
                                                                    
    /home/iris/Desktop/Working_Folders/mschnur/Watchdog_MSP430/Apps/FlightSoftware/fprime/Libs/libSvcPing.a
       PingPortAc.o                       2224     224       0      
    +--+----------------------------------+--------+---------+---------+
       Total:                             2224     224       0      
                                                                    
    /home/iris/Desktop/Working_Folders/mschnur/Watchdog_MSP430/Apps/FlightSoftware/fprime/Libs/libSvcRateGroupDriver.a
       RateGroupDriverComponentAc.o       2316     73        0      
       RateGroupDriverImpl.o              1040     64        0      
    +--+----------------------------------+--------+---------+---------+
       Total:                             3356     137       0      
                                                                    
    /home/iris/Desktop/Working_Folders/mschnur/Watchdog_MSP430/Apps/FlightSoftware/fprime/Libs/libSvcSched.a
       SchedPortAc.o                      2248     228       0      
    +--+----------------------------------+--------+---------+---------+
       Total:                             2248     228       0      
                                                                    
    /home/iris/Desktop/Working_Folders/mschnur/Watchdog_MSP430/Apps/FlightSoftware/fprime/Libs/libSvcTime.a
       TimeComponentAc.o                  992      62        0      
    +--+----------------------------------+--------+---------+---------+
       Total:                             992      62        0      
                                                                    
    /home/iris/Desktop/Working_Folders/mschnur/Watchdog_MSP430/Apps/FlightSoftware/fprime/Libs/libSvcTlmChan.a
       TlmChanComponentAc.o               9636     236       0      
       TlmChanImplRecv.o                  980      0         0      
       TlmChanImpl.o                      532      104       0      
       TlmChanImplTask.o                  500      0         0      
       TlmChanImplGet.o                   144      0         0      
    +--+----------------------------------+--------+---------+---------+
       Total:                             11792    340       0      
                                                                    
    /home/iris/Desktop/Working_Folders/mschnur/Watchdog_MSP430/Apps/FlightSoftware/fprime/Libs/libSvcWatchDog.a
       WatchDogPortAc.o                   2328     240       0      
    +--+----------------------------------+--------+---------+---------+
       Total:                             2328     240       0      
                                                                    
    /home/iris/ti/ccs910/ccs/tools/compiler/ti-cgt-arm_18.12.2.LTS/lib/rtsv7R4_T_le_v3D16_eabi.lib
       _printfi.c.obj                     4667     0         0      
       memory.c.obj                       896      0         8      
       ull_div32.asm.obj                  696      0         0      
       vla_alloc.c.obj                    548      0         28     
       defs.c.obj                         0        0         416    
       trgmsg.c.obj                       112      0         288    
       s_atanf.c.obj                      340      52        0      
       e_atan2f.c.obj                     348      0         0      
       vec_newdel.c.obj                   298      0         0      
       fputs.c.obj                        280      0         0      
       ctype.c.obj                        0        257       0      
       typeinfo.c.obj                     54       193       0      
       s_scalbn.c.obj                     240      0         0      
       s_floor.c.obj                      224      0         0      
       setvbuf.c.obj                      220      0         0      
       dtor_list.c.obj                    202      0         8      
       fflush.c.obj                       204      0         0      
       host_device.c.obj                  0        0         200    
       strerror.c.obj                     162      0         0      
       memcpy_t2.asm.obj                  156      0         0      
       snprintf.c.obj                     148      0         0      
       fputc.c.obj                        144      0         0      
       vsnprintf.c.obj                    136      0         0      
       memset_t2.asm.obj                  122      0         0      
       getdevice.c.obj                    120      0         0      
       fclose.c.obj                       116      0         0      
       s_frexp.c.obj                      116      0         0      
       printf.c.obj                       112      0         0      
       copy_decompress_lzss.c.obj         108      0         0      
       fprintf.c.obj                      108      0         0      
       hostlseek.c.obj                    104      0         0      
       hostrename.c.obj                   104      0         0      
       _io_perm.c.obj                     100      0         0      
       fseek.c.obj                        100      0         0      
       hostopen.c.obj                     92       0         8      
       sprintf.c.obj                      100      0         0      
       autoinit.c.obj                     96       0         0      
       hostread.c.obj                     92       0         0      
       close.c.obj                        88       0         0      
       hostwrite.c.obj                    88       0         0      
       exit.c.obj                         72       0         12     
       i_div32.asm.obj                    84       0         0      
       ltoa.c.obj                         84       0         0      
       new.cpp.obj                        78       0         4      
       atoi.c.obj                         80       0         0      
       u_div32.asm.obj                    80       0         0      
       vsprintf.c.obj                     76       0         0      
       hostclose.c.obj                    68       0         0      
       hostunlink.c.obj                   68       0         0      
       strncpy.c.obj                      54       0         0      
       fopen.c.obj                        52       0         0      
       unlink.c.obj                       44       0         0      
       e_sqrtf.c.obj                      40       0         0      
       lseek.c.obj                        40       0         0      
       write.c.obj                        40       0         0      
       memcmp.c.obj                       38       0         0      
       strlen.c.obj                       34       0         0      
       memchr.c.obj                       32       0         0      
       s_copysign.c.obj                   32       0         0      
       strcat.c.obj                       30       0         0      
       assert.c.obj                       28       0         0      
       memccpy.c.obj                      28       0         0      
       strcmp.c.obj                       24       0         0      
       stdlib_typeinfo.cpp.obj            2        21        0      
       guard.c.obj                        22       0         0      
       strchr.c.obj                       22       0         0      
       strcpy.c.obj                       20       0         0      
       wcslen.c.obj                       18       0         0      
       copy_decompress_none.c.obj         14       0         0      
       copy_zero_init.c.obj               12       0         0      
       errno.c.obj                        8        0         4      
       _lock.c.obj                        2        0         8      
       pure_virt.c.obj                    6        0         0      
       error.c.obj                        4        0         0      
       div0.asm.obj                       2        0         0      
    +--+----------------------------------+--------+---------+---------+
       Total:                             13179    523       984    
                                                                    
       Heap:                              0        0         16384  
       Linker Generated:                  0        223       0      
    +--+----------------------------------+--------+---------+---------+
       Grand Total:                       659907   15861     186823 


LINKER GENERATED COPY TABLES

__TI_cinit_table @ 00006050 records: 4, size/record: 8, table size: 32
	.data: load addr=00005f88, load size=0000009a bytes, run addr=0802eff8, run size=000002a6 bytes, compression=lzss
	.kernelBSS: load addr=00006030, load size=00000009 bytes, run addr=08001400, run size=00000320 bytes, compression=lzss
	.bss: load addr=00006040, load size=00000008 bytes, run addr=08001c00, run size=000199f8 bytes, compression=zero_init
	.kernelHEAP: load addr=00006048, load size=00000008 bytes, run addr=0801b5f8, run size=0000fa00 bytes, compression=zero_init


LINKER GENERATED HANDLER TABLE

__TI_handler_table @ 00006024 records: 3, size/record: 4, table size: 12
	index: 0, handler: __TI_decompress_lzss
	index: 1, handler: __TI_decompress_none
	index: 2, handler: __TI_zero_init

VENEERS

callee name               veneer name
   callee addr  veneer addr  call addr  call info
--------------  -----------  ---------  ----------------
strerror                  $Ven$AT$L$PI$$strerror
   0009e649     000a3244     0009e630   libOs.a : File.o (.text)
strlen                    $Ven$AT$L$PI$$strlen
   000a2657     000a3250     00099024   libFwLog.a : LogString.o (.text)
                             00099808              : TextLogString.o (.text)
                             00099cf8   libFwCmd.a : CmdString.o (.text)
                             0009a6c8   libOs.a : TaskString.o (.text)
                             0009a93c   libFwTypes.a : EightyCharString.o (.text)
                             0009b4b0   libOs.a : QueueString.o (.text)
_ZdlPvj                   $Ven$AT$L$PI$$_ZdlPvj
   000a321d     000a325c     00064908   libFwTypes.a : Serializable.o (.text)
                             00064910                : Serializable.o (.text)
                             0009ce2c   libOs.a : IntervalTimer.o (.text)
                             0009d3e0           : TaskCommon.o (.text)
                             0009da44   libFwObj.a : ObjBase.o (.text)
                             0009dac0              : ObjBase.o (.text)
                             0009e5b8   libOs.a : File.o (.text)
                             000a2f4c   libFwTypes.a : Serializable.o (.text:_ZN2Fw23ExternalSerializeBufferD0Ev)

[3 trampolines]
[15 trampoline calls]


GLOBAL SYMBOLS: SORTED ALPHABETICALLY BY Name 

address   name                                                                                                                                                                                                                                       
-------   ----                                                                                                                                                                                                                                       
000a3239  C$$EXIT                                                                                                                                                                                                                                    
000a00f7  C$$IO$$                                                                                                                                                                                                                                    
0009fc41  HOSTclose                                                                                                                                                                                                                                  
0009f21d  HOSTlseek                                                                                                                                                                                                                                  
0009f609  HOSTopen                                                                                                                                                                                                                                   
0009f665  HOSTread                                                                                                                                                                                                                                   
0009f285  HOSTrename                                                                                                                                                                                                                                 
0009fc85  HOSTunlink                                                                                                                                                                                                                                 
0009f71d  HOSTwrite                                                                                                                                                                                                                                  
08019c80  IMU                                                                                                                                                                                                                                        
00090c94  IsdwdKeySequenceCorrect                                                                                                                                                                                                                    
0007d65c  MPU_eTaskGetState                                                                                                                                                                                                                          
0007d810  MPU_pcTaskGetName                                                                                                                                                                                                                          
0007d8f0  MPU_pvTaskGetThreadLocalStoragePointer                                                                                                                                                                                                     
0007da54  MPU_ulTaskNotifyTake                                                                                                                                                                                                                       
0007dc10  MPU_uxQueueMessagesWaiting                                                                                                                                                                                                                 
0007dc44  MPU_uxQueueSpacesAvailable                                                                                                                                                                                                                 
0007d7e4  MPU_uxTaskGetNumberOfTasks                                                                                                                                                                                                                 
0007d878  MPU_uxTaskGetStackHighWaterMark                                                                                                                                                                                                            
0007d960  MPU_uxTaskGetSystemState                                                                                                                                                                                                                   
0007d628  MPU_uxTaskPriorityGet                                                                                                                                                                                                                      
0007dfa0  MPU_vEventGroupDelete                                                                                                                                                                                                                      
0007dc78  MPU_vQueueDelete                                                                                                                                                                                                                           
0007d534  MPU_vTaskAllocateMPURegions                                                                                                                                                                                                                
0007d594  MPU_vTaskDelay                                                                                                                                                                                                                             
0007d5c0  MPU_vTaskDelayUntil                                                                                                                                                                                                                        
0007d568  MPU_vTaskDelete                                                                                                                                                                                                                            
0007d690  MPU_vTaskGetInfo                                                                                                                                                                                                                           
0007d6dc  MPU_vTaskPrioritySet                                                                                                                                                                                                                       
0007d73c  MPU_vTaskResume                                                                                                                                                                                                                            
0007d8ac  MPU_vTaskSetThreadLocalStoragePointer                                                                                                                                                                                                      
0007dacc  MPU_vTaskSetTimeOutState                                                                                                                                                                                                                   
0007d710  MPU_vTaskSuspend                                                                                                                                                                                                                           
0007d768  MPU_vTaskSuspendAll                                                                                                                                                                                                                        
0007dec4  MPU_xEventGroupClearBits                                                                                                                                                                                                                   
0007de08  MPU_xEventGroupCreate                                                                                                                                                                                                                      
0007de34  MPU_xEventGroupCreateStatic                                                                                                                                                                                                                
0007df08  MPU_xEventGroupSetBits                                                                                                                                                                                                                     
0007df4c  MPU_xEventGroupSync                                                                                                                                                                                                                        
0007de68  MPU_xEventGroupWaitBits                                                                                                                                                                                                                    
0007dca4  MPU_xQueueCreateMutex                                                                                                                                                                                                                      
0007dcd8  MPU_xQueueCreateMutexStatic                                                                                                                                                                                                                
0007dd1c  MPU_xQueueGenericCreate                                                                                                                                                                                                                    
0007dd68  MPU_xQueueGenericCreateStatic                                                                                                                                                                                                              
0007dbbc  MPU_xQueueGenericReceive                                                                                                                                                                                                                   
0007ddc4  MPU_xQueueGenericReset                                                                                                                                                                                                                     
0007db68  MPU_xQueueGenericSend                                                                                                                                                                                                                      
0007d5f4  MPU_xTaskAbortDelay                                                                                                                                                                                                                        
0007daf8  MPU_xTaskCheckForTimeOut                                                                                                                                                                                                                   
0007d420  MPU_xTaskCreate                                                                                                                                                                                                                            
0007d4f0  MPU_xTaskCreateRestricted                                                                                                                                                                                                                  
0007d484  MPU_xTaskCreateStatic                                                                                                                                                                                                                      
0007d9ac  MPU_xTaskGenericNotify                                                                                                                                                                                                                     
0007d844  MPU_xTaskGetHandle                                                                                                                                                                                                                         
0007d934  MPU_xTaskGetIdleTaskHandle                                                                                                                                                                                                                 
0007db3c  MPU_xTaskGetSchedulerState                                                                                                                                                                                                                 
0007d7b8  MPU_xTaskGetTickCount                                                                                                                                                                                                                      
0007da98  MPU_xTaskNotifyStateClear                                                                                                                                                                                                                  
0007da00  MPU_xTaskNotifyWait                                                                                                                                                                                                                        
0007d78c  MPU_xTaskResumeAll                                                                                                                                                                                                                         
000a6f78  SHT$$INIT_ARRAY$$Base                                                                                                                                                                                                                      
000a6f88  SHT$$INIT_ARRAY$$Limit                                                                                                                                                                                                                     
00074614  SpiRxStatus                                                                                                                                                                                                                                
00074588  SpiTxStatus                                                                                                                                                                                                                                
0009e6e0  Update_DMA_Comp_Flag                                                                                                                                                                                                                       
00090fe0  _Z12constructAppv                                                                                                                                                                                                                          
000842e8  _Z15setCubeRoverIdsv                                                                                                                                                                                                                       
0009fe1d  _Z23__finalize_destructionsPP20a_needed_destructionPv                                                                                                                                                                                      
0009fcc9  _Z25__add_destruction_to_listPP20a_needed_destructionPFYvPvES2_S2_                                                                                                                                                                         
000843b0  _Z30constructCubeRoverArchitecturev                                                                                                                                                                                                        
000a1cf8  _Z4fabsf                                                                                                                                                                                                                                   
000a1244  _Z5atan2ff                                                                                                                                                                                                                                 
00090f60  _Z9run1cyclev                                                                                                                                                                                                                              
000a2eb5  _ZN10__cxxabiv117__class_type_infoD0Ev                                                                                                                                                                                                     
000a317d  _ZN10__cxxabiv117__class_type_infoD1Ev                                                                                                                                                                                                     
000a317d  _ZN10__cxxabiv117__class_type_infoD2Ev                                                                                                                                                                                                     
000a2ec3  _ZN10__cxxabiv120__si_class_type_infoD0Ev                                                                                                                                                                                                  
000a3181  _ZN10__cxxabiv120__si_class_type_infoD1Ev                                                                                                                                                                                                  
000a3181  _ZN10__cxxabiv120__si_class_type_infoD2Ev                                                                                                                                                                                                  
000a2ed1  _ZN10__cxxabiv121__vmi_class_type_infoD0Ev                                                                                                                                                                                                 
000a3185  _ZN10__cxxabiv121__vmi_class_type_infoD1Ev                                                                                                                                                                                                 
000a3185  _ZN10__cxxabiv121__vmi_class_type_infoD2Ev                                                                                                                                                                                                 
000796ec  _ZN14CubeRoverPorts16InputIMUDataPort11addCallCompEPN2Fw20PassiveComponentBaseEPFvS3_isssE                                                                                                                                                 
00079b6c  _ZN14CubeRoverPorts16InputIMUDataPort12invokeSerialERN2Fw19SerializeBufferBaseE                                                                                                                                                            
000796d8  _ZN14CubeRoverPorts16InputIMUDataPort4initEv                                                                                                                                                                                               
0007974c  _ZN14CubeRoverPorts16InputIMUDataPort6invokeEsss                                                                                                                                                                                           
000796a8  _ZN14CubeRoverPorts16InputIMUDataPortC1Ev                                                                                                                                                                                                  
000796a8  _ZN14CubeRoverPorts16InputIMUDataPortC2Ev                                                                                                                                                                                                  
000a1260  _ZN14CubeRoverPorts16InputIMUDataPortD0Ev                                                                                                                                                                                                  
000a266c  _ZN14CubeRoverPorts16InputIMUDataPortD1Ev                                                                                                                                                                                                  
00079ca0  _ZN14CubeRoverPorts17OutputIMUDataPort11addCallPortEPNS_16InputIMUDataPortE                                                                                                                                                                
00079c8c  _ZN14CubeRoverPorts17OutputIMUDataPort4initEv                                                                                                                                                                                              
00079db4  _ZN14CubeRoverPorts17OutputIMUDataPort6invokeEsss                                                                                                                                                                                          
00079c5c  _ZN14CubeRoverPorts17OutputIMUDataPortC1Ev                                                                                                                                                                                                 
00079c5c  _ZN14CubeRoverPorts17OutputIMUDataPortC2Ev                                                                                                                                                                                                 
000a127c  _ZN14CubeRoverPorts17OutputIMUDataPortD0Ev                                                                                                                                                                                                 
000a2680  _ZN14CubeRoverPorts17OutputIMUDataPortD1Ev                                                                                                                                                                                                 
0008188c  _ZN14CubeRoverPorts18InputMotorDataPort11addCallCompEPN2Fw20PassiveComponentBaseEPFvS3_ibE                                                                                                                                                 
00081a0c  _ZN14CubeRoverPorts18InputMotorDataPort12invokeSerialERN2Fw19SerializeBufferBaseE                                                                                                                                                          
00081878  _ZN14CubeRoverPorts18InputMotorDataPort4initEv                                                                                                                                                                                             
000818ec  _ZN14CubeRoverPorts18InputMotorDataPort6invokeEb                                                                                                                                                                                           
00081848  _ZN14CubeRoverPorts18InputMotorDataPortC1Ev                                                                                                                                                                                                
00081848  _ZN14CubeRoverPorts18InputMotorDataPortC2Ev                                                                                                                                                                                                
000a1298  _ZN14CubeRoverPorts18InputMotorDataPortD0Ev                                                                                                                                                                                                
000a2694  _ZN14CubeRoverPorts18InputMotorDataPortD1Ev                                                                                                                                                                                                
00081dd0  _ZN14CubeRoverPorts19OutputMotorDataPort11addCallPortEPNS_18InputMotorDataPortE                                                                                                                                                            
00081ac4  _ZN14CubeRoverPorts19OutputMotorDataPort4initEv                                                                                                                                                                                            
00081ed8  _ZN14CubeRoverPorts19OutputMotorDataPort6invokeEb                                                                                                                                                                                          
00081a94  _ZN14CubeRoverPorts19OutputMotorDataPortC1Ev                                                                                                                                                                                               
00081a94  _ZN14CubeRoverPorts19OutputMotorDataPortC2Ev                                                                                                                                                                                               
000a12b4  _ZN14CubeRoverPorts19OutputMotorDataPortD0Ev                                                                                                                                                                                               
000a26a8  _ZN14CubeRoverPorts19OutputMotorDataPortD1Ev                                                                                                                                                                                               
00075d30  _ZN14CubeRoverPorts21InputMotorCommandPort11addCallCompEPN2Fw20PassiveComponentBaseEPFvS3_iNS_14MC_CommandTypeENS_15MC_MovementTypeEhhE                                                                                                    
000761e0  _ZN14CubeRoverPorts21InputMotorCommandPort12invokeSerialERN2Fw19SerializeBufferBaseE                                                                                                                                                       
00075d1c  _ZN14CubeRoverPorts21InputMotorCommandPort4initEv                                                                                                                                                                                          
00075d90  _ZN14CubeRoverPorts21InputMotorCommandPort6invokeENS_14MC_CommandTypeENS_15MC_MovementTypeEhh                                                                                                                                              
00075cec  _ZN14CubeRoverPorts21InputMotorCommandPortC1Ev                                                                                                                                                                                             
00075cec  _ZN14CubeRoverPorts21InputMotorCommandPortC2Ev                                                                                                                                                                                             
000a12d0  _ZN14CubeRoverPorts21InputMotorCommandPortD0Ev                                                                                                                                                                                             
000a26bc  _ZN14CubeRoverPorts21InputMotorCommandPortD1Ev                                                                                                                                                                                             
0007634c  _ZN14CubeRoverPorts22OutputMotorCommandPort11addCallPortEPNS_21InputMotorCommandPortE                                                                                                                                                      
00076338  _ZN14CubeRoverPorts22OutputMotorCommandPort4initEv                                                                                                                                                                                         
000767a4  _ZN14CubeRoverPorts22OutputMotorCommandPort6invokeENS_14MC_CommandTypeENS_15MC_MovementTypeEhh                                                                                                                                             
00076308  _ZN14CubeRoverPorts22OutputMotorCommandPortC1Ev                                                                                                                                                                                            
00076308  _ZN14CubeRoverPorts22OutputMotorCommandPortC2Ev                                                                                                                                                                                            
000a12ec  _ZN14CubeRoverPorts22OutputMotorCommandPortD0Ev                                                                                                                                                                                            
000a26d0  _ZN14CubeRoverPorts22OutputMotorCommandPortD1Ev                                                                                                                                                                                            
0007c8a4  _ZN14CubeRoverPorts29InputWatchdogResetRequestPort11addCallCompEPN2Fw20PassiveComponentBaseEPFvS3_iNS_10ResetValueEE                                                                                                                       
0007cd80  _ZN14CubeRoverPorts29InputWatchdogResetRequestPort12invokeSerialERN2Fw19SerializeBufferBaseE                                                                                                                                               
0007c890  _ZN14CubeRoverPorts29InputWatchdogResetRequestPort4initEv                                                                                                                                                                                  
0007c904  _ZN14CubeRoverPorts29InputWatchdogResetRequestPort6invokeENS_10ResetValueE                                                                                                                                                                 
0007c860  _ZN14CubeRoverPorts29InputWatchdogResetRequestPortC1Ev                                                                                                                                                                                     
0007c860  _ZN14CubeRoverPorts29InputWatchdogResetRequestPortC2Ev                                                                                                                                                                                     
000a1308  _ZN14CubeRoverPorts29InputWatchdogResetRequestPortD0Ev                                                                                                                                                                                     
000a26e4  _ZN14CubeRoverPorts29InputWatchdogResetRequestPortD1Ev                                                                                                                                                                                     
0007ce60  _ZN14CubeRoverPorts30OutputWatchdogResetRequestPort11addCallPortEPNS_29InputWatchdogResetRequestPortE                                                                                                                                      
0007ce4c  _ZN14CubeRoverPorts30OutputWatchdogResetRequestPort4initEv                                                                                                                                                                                 
0007cea8  _ZN14CubeRoverPorts30OutputWatchdogResetRequestPort6invokeENS_10ResetValueE                                                                                                                                                                
0007ce1c  _ZN14CubeRoverPorts30OutputWatchdogResetRequestPortC1Ev                                                                                                                                                                                    
0007ce1c  _ZN14CubeRoverPorts30OutputWatchdogResetRequestPortC2Ev                                                                                                                                                                                    
000a1324  _ZN14CubeRoverPorts30OutputWatchdogResetRequestPortD0Ev                                                                                                                                                                                    
000a26f8  _ZN14CubeRoverPorts30OutputWatchdogResetRequestPortD1Ev                                                                                                                                                                                    
000a1d10  _ZN14CubeRoverPorts41_GLOBAL__N__17_IMUDataPortAc_cpp_6437ed9e17IMUDataPortBuffer11getBuffAddrEv                                                                                                                                           
000a0bc4  _ZN14CubeRoverPorts41_GLOBAL__N__17_IMUDataPortAc_cpp_6437ed9e17IMUDataPortBufferC1Ev                                                                                                                                                      
000a1340  _ZN14CubeRoverPorts41_GLOBAL__N__17_IMUDataPortAc_cpp_6437ed9e17IMUDataPortBufferD0Ev                                                                                                                                                      
000a270c  _ZN14CubeRoverPorts41_GLOBAL__N__17_IMUDataPortAc_cpp_6437ed9e17IMUDataPortBufferD1Ev                                                                                                                                                      
000a1d28  _ZN14CubeRoverPorts43_GLOBAL__N__19_MotorDataPortAc_cpp_bbdf208119MotorDataPortBuffer11getBuffAddrEv                                                                                                                                       
000a0be8  _ZN14CubeRoverPorts43_GLOBAL__N__19_MotorDataPortAc_cpp_bbdf208119MotorDataPortBufferC1Ev                                                                                                                                                  
000a135c  _ZN14CubeRoverPorts43_GLOBAL__N__19_MotorDataPortAc_cpp_bbdf208119MotorDataPortBufferD0Ev                                                                                                                                                  
000a2720  _ZN14CubeRoverPorts43_GLOBAL__N__19_MotorDataPortAc_cpp_bbdf208119MotorDataPortBufferD1Ev                                                                                                                                                  
000a1d40  _ZN14CubeRoverPorts46_GLOBAL__N__22_MotorCommandPortAc_cpp_9498a4ec22MotorCommandPortBuffer11getBuffAddrEv                                                                                                                                 
000a0c0c  _ZN14CubeRoverPorts46_GLOBAL__N__22_MotorCommandPortAc_cpp_9498a4ec22MotorCommandPortBufferC1Ev                                                                                                                                            
000a1378  _ZN14CubeRoverPorts46_GLOBAL__N__22_MotorCommandPortAc_cpp_9498a4ec22MotorCommandPortBufferD0Ev                                                                                                                                            
000a2734  _ZN14CubeRoverPorts46_GLOBAL__N__22_MotorCommandPortAc_cpp_9498a4ec22MotorCommandPortBufferD1Ev                                                                                                                                            
000a1d58  _ZN14CubeRoverPorts54_GLOBAL__N__30_WatchdogResetRequestPortAc_cpp_0f54cacb30WatchdogResetRequestPortBuffer11getBuffAddrEv                                                                                                                 
000a0c30  _ZN14CubeRoverPorts54_GLOBAL__N__30_WatchdogResetRequestPortAc_cpp_0f54cacb30WatchdogResetRequestPortBufferC1Ev                                                                                                                            
000a1394  _ZN14CubeRoverPorts54_GLOBAL__N__30_WatchdogResetRequestPortAc_cpp_0f54cacb30WatchdogResetRequestPortBufferD0Ev                                                                                                                            
000a2748  _ZN14CubeRoverPorts54_GLOBAL__N__30_WatchdogResetRequestPortAc_cpp_0f54cacb30WatchdogResetRequestPortBufferD1Ev                                                                                                                            
000958ac  _ZN2Fw10StringBase10appendBuffEPKcj                                                                                                                                                                                                        
00095a1c  _ZN2Fw10StringBase6formatEPKcz                                                                                                                                                                                                             
00095a08  _ZN2Fw10StringBaseC1Ev                                                                                                                                                                                                                     
00095a08  _ZN2Fw10StringBaseC2Ev                                                                                                                                                                                                                     
00095730  _ZN2Fw10StringBaseD0Ev                                                                                                                                                                                                                     
0009572c  _ZN2Fw10StringBaseD1Ev                                                                                                                                                                                                                     
0009572c  _ZN2Fw10StringBaseD2Ev                                                                                                                                                                                                                     
00095744  _ZN2Fw10StringBaseaSEPKc                                                                                                                                                                                                                   
000959bc  _ZN2Fw10StringBaseaSERKS0_                                                                                                                                                                                                                 
00095988  _ZN2Fw10StringBasepLEPKc                                                                                                                                                                                                                   
00095944  _ZN2Fw10StringBasepLERKS0_                                                                                                                                                                                                                 
0009dabc  _ZN2Fw11ObjRegistryD0Ev                                                                                                                                                                                                                    
0009dac4  _ZN2Fw11ObjRegistryD1Ev                                                                                                                                                                                                                    
0009dac4  _ZN2Fw11ObjRegistryD2Ev                                                                                                                                                                                                                    
00097c40  _ZN2Fw12CmdArgBuffer11getBuffAddrEv                                                                                                                                                                                                        
00097c00  _ZN2Fw12CmdArgBufferC1EPKhj                                                                                                                                                                                                                
00097bb8  _ZN2Fw12CmdArgBufferC1ERKS0_                                                                                                                                                                                                               
00097ba4  _ZN2Fw12CmdArgBufferC1Ev                                                                                                                                                                                                                   
00097c00  _ZN2Fw12CmdArgBufferC2EPKhj                                                                                                                                                                                                                
00097bb8  _ZN2Fw12CmdArgBufferC2ERKS0_                                                                                                                                                                                                               
00097ba4  _ZN2Fw12CmdArgBufferC2Ev                                                                                                                                                                                                                   
00097b90  _ZN2Fw12CmdArgBufferD0Ev                                                                                                                                                                                                                   
00097b8c  _ZN2Fw12CmdArgBufferD1Ev                                                                                                                                                                                                                   
00097b8c  _ZN2Fw12CmdArgBufferD2Ev                                                                                                                                                                                                                   
00097b50  _ZN2Fw12CmdArgBufferaSERKS0_                                                                                                                                                                                                               
00099d74  _ZN2Fw12CmdStringArg11deserializeERNS_19SerializeBufferBaseE                                                                                                                                                                               
00099d1c  _ZN2Fw12CmdStringArg8copyBuffEPKcj                                                                                                                                                                                                         
00099d04  _ZN2Fw12CmdStringArg9terminateEj                                                                                                                                                                                                           
00099e70  _ZN2Fw12CmdStringArgC1EPKc                                                                                                                                                                                                                 
00099e30  _ZN2Fw12CmdStringArgC1ERKNS_10StringBaseE                                                                                                                                                                                                  
00099e04  _ZN2Fw12CmdStringArgC1ERKS0_                                                                                                                                                                                                               
00099de8  _ZN2Fw12CmdStringArgC1Ev                                                                                                                                                                                                                   
00099e70  _ZN2Fw12CmdStringArgC2EPKc                                                                                                                                                                                                                 
00099e30  _ZN2Fw12CmdStringArgC2ERKNS_10StringBaseE                                                                                                                                                                                                  
00099e04  _ZN2Fw12CmdStringArgC2ERKS0_                                                                                                                                                                                                               
00099de8  _ZN2Fw12CmdStringArgC2Ev                                                                                                                                                                                                                   
00099d60  _ZN2Fw12CmdStringArgD0Ev                                                                                                                                                                                                                   
00099d5c  _ZN2Fw12CmdStringArgD1Ev                                                                                                                                                                                                                   
00099d5c  _ZN2Fw12CmdStringArgD2Ev                                                                                                                                                                                                                   
00099db0  _ZN2Fw12CmdStringArgaSERKS0_                                                                                                                                                                                                               
00083ec4  _ZN2Fw12InputCmdPort11addCallCompEPNS_20PassiveComponentBaseEPFvS2_itjRNS_12CmdArgBufferEE                                                                                                                                                 
00083894  _ZN2Fw12InputCmdPort12invokeSerialERNS_19SerializeBufferBaseE                                                                                                                                                                              
00083890  _ZN2Fw12InputCmdPort4initEv                                                                                                                                                                                                                
0008395c  _ZN2Fw12InputCmdPort6invokeEtjRNS_12CmdArgBufferE                                                                                                                                                                                          
00083ea8  _ZN2Fw12InputCmdPortC1Ev                                                                                                                                                                                                                   
00083ea8  _ZN2Fw12InputCmdPortC2Ev                                                                                                                                                                                                                   
000a13b0  _ZN2Fw12InputCmdPortD0Ev                                                                                                                                                                                                                   
000a275c  _ZN2Fw12InputCmdPortD1Ev                                                                                                                                                                                                                   
0008694c  _ZN2Fw12InputComPort11addCallCompEPNS_20PassiveComponentBaseEPFvS2_iRNS_9ComBufferEjE                                                                                                                                                      
00086210  _ZN2Fw12InputComPort12invokeSerialERNS_19SerializeBufferBaseE                                                                                                                                                                              
0008620c  _ZN2Fw12InputComPort4initEv                                                                                                                                                                                                                
000862b4  _ZN2Fw12InputComPort6invokeERNS_9ComBufferEj                                                                                                                                                                                               
00086930  _ZN2Fw12InputComPortC1Ev                                                                                                                                                                                                                   
00086930  _ZN2Fw12InputComPortC2Ev                                                                                                                                                                                                                   
000a13cc  _ZN2Fw12InputComPortD0Ev                                                                                                                                                                                                                   
000a2770  _ZN2Fw12InputComPortD1Ev                                                                                                                                                                                                                   
0007e73c  _ZN2Fw12InputLogPort11addCallCompEPNS_20PassiveComponentBaseEPFvS2_itRNS_4TimeENS_11LogSeverityERNS_9LogBufferEE                                                                                                                           
0007dff0  _ZN2Fw12InputLogPort12invokeSerialERNS_19SerializeBufferBaseE                                                                                                                                                                              
0007dfec  _ZN2Fw12InputLogPort4initEv                                                                                                                                                                                                                
0007e0f4  _ZN2Fw12InputLogPort6invokeEtRNS_4TimeENS_11LogSeverityERNS_9LogBufferE                                                                                                                                                                    
0007e720  _ZN2Fw12InputLogPortC1Ev                                                                                                                                                                                                                   
0007e720  _ZN2Fw12InputLogPortC2Ev                                                                                                                                                                                                                   
000a13e8  _ZN2Fw12InputLogPortD0Ev                                                                                                                                                                                                                   
000a2784  _ZN2Fw12InputLogPortD1Ev                                                                                                                                                                                                                   
0008344c  _ZN2Fw12InputTlmPort11addCallCompEPNS_20PassiveComponentBaseEPFvS2_itRNS_4TimeERNS_9TlmBufferEE                                                                                                                                            
00082e08  _ZN2Fw12InputTlmPort12invokeSerialERNS_19SerializeBufferBaseE                                                                                                                                                                              
00082e04  _ZN2Fw12InputTlmPort4initEv                                                                                                                                                                                                                
00082ee8  _ZN2Fw12InputTlmPort6invokeEtRNS_4TimeERNS_9TlmBufferE                                                                                                                                                                                     
00083430  _ZN2Fw12InputTlmPortC1Ev                                                                                                                                                                                                                   
00083430  _ZN2Fw12InputTlmPortC2Ev                                                                                                                                                                                                                   
000a2798  _ZN2Fw12InputTlmPortD0Ev                                                                                                                                                                                                                   
000a3188  _ZN2Fw12InputTlmPortD1Ev                                                                                                                                                                                                                   
000990a0  _ZN2Fw12LogStringArg11deserializeERNS_19SerializeBufferBaseE                                                                                                                                                                               
000991e0  _ZN2Fw12LogStringArg15setMaxSerializeEj                                                                                                                                                                                                    
00099048  _ZN2Fw12LogStringArg8copyBuffEPKcj                                                                                                                                                                                                         
00099030  _ZN2Fw12LogStringArg9terminateEj                                                                                                                                                                                                           
000991b0  _ZN2Fw12LogStringArgC1EPKc                                                                                                                                                                                                                 
00099168  _ZN2Fw12LogStringArgC1ERKNS_10StringBaseE                                                                                                                                                                                                  
00099138  _ZN2Fw12LogStringArgC1ERKS0_                                                                                                                                                                                                               
00099114  _ZN2Fw12LogStringArgC1Ev                                                                                                                                                                                                                   
000991b0  _ZN2Fw12LogStringArgC2EPKc                                                                                                                                                                                                                 
00099168  _ZN2Fw12LogStringArgC2ERKNS_10StringBaseE                                                                                                                                                                                                  
00099138  _ZN2Fw12LogStringArgC2ERKS0_                                                                                                                                                                                                               
00099114  _ZN2Fw12LogStringArgC2Ev                                                                                                                                                                                                                   
0009908c  _ZN2Fw12LogStringArgD0Ev                                                                                                                                                                                                                   
00099088  _ZN2Fw12LogStringArgD1Ev                                                                                                                                                                                                                   
00099088  _ZN2Fw12LogStringArgD2Ev                                                                                                                                                                                                                   
000990dc  _ZN2Fw12LogStringArgaSERKS0_                                                                                                                                                                                                               
000673c0  _ZN2Fw12SerializableC1Ev                                                                                                                                                                                                                   
000673c0  _ZN2Fw12SerializableC2Ev                                                                                                                                                                                                                   
0006490c  _ZN2Fw12SerializableD0Ev                                                                                                                                                                                                                   
00064914  _ZN2Fw12SerializableD1Ev                                                                                                                                                                                                                   
00064914  _ZN2Fw12SerializableD2Ev                                                                                                                                                                                                                   
0009c2cc  _ZN2Fw13InputPortBase10setPortNumEi                                                                                                                                                                                                        
0009c2c8  _ZN2Fw13InputPortBase4initEv                                                                                                                                                                                                               
0009c278  _ZN2Fw13InputPortBase8toStringEPci                                                                                                                                                                                                         
0009c254  _ZN2Fw13InputPortBaseC1Ev                                                                                                                                                                                                                  
0009c254  _ZN2Fw13InputPortBaseC2Ev                                                                                                                                                                                                                  
0009c240  _ZN2Fw13InputPortBaseD0Ev                                                                                                                                                                                                                  
0009c23c  _ZN2Fw13InputPortBaseD1Ev                                                                                                                                                                                                                  
0009c23c  _ZN2Fw13InputPortBaseD2Ev                                                                                                                                                                                                                  
0008d338  _ZN2Fw13InputTimePort11addCallCompEPNS_20PassiveComponentBaseEPFvS2_iRNS_4TimeEE                                                                                                                                                           
0008ccec  _ZN2Fw13InputTimePort12invokeSerialERNS_19SerializeBufferBaseE                                                                                                                                                                             
0008cce8  _ZN2Fw13InputTimePort4initEv                                                                                                                                                                                                               
0008cd70  _ZN2Fw13InputTimePort6invokeERNS_4TimeE                                                                                                                                                                                                    
0008d31c  _ZN2Fw13InputTimePortC1Ev                                                                                                                                                                                                                  
0008d31c  _ZN2Fw13InputTimePortC2Ev                                                                                                                                                                                                                  
000a27ac  _ZN2Fw13InputTimePortD0Ev                                                                                                                                                                                                                  
000a318c  _ZN2Fw13InputTimePortD1Ev                                                                                                                                                                                                                  
00083e7c  _ZN2Fw13OutputCmdPort11addCallPortEPNS_12InputCmdPortE                                                                                                                                                                                     
0008388c  _ZN2Fw13OutputCmdPort4initEv                                                                                                                                                                                                               
00083d84  _ZN2Fw13OutputCmdPort6invokeEtjRNS_12CmdArgBufferE                                                                                                                                                                                         
00083870  _ZN2Fw13OutputCmdPortC1Ev                                                                                                                                                                                                                  
00083870  _ZN2Fw13OutputCmdPortC2Ev                                                                                                                                                                                                                  
000a27c0  _ZN2Fw13OutputCmdPortD0Ev                                                                                                                                                                                                                  
000a3190  _ZN2Fw13OutputCmdPortD1Ev                                                                                                                                                                                                                  
00086904  _ZN2Fw13OutputComPort11addCallPortEPNS_12InputComPortE                                                                                                                                                                                     
00086208  _ZN2Fw13OutputComPort4initEv                                                                                                                                                                                                               
000863b4  _ZN2Fw13OutputComPort6invokeERNS_9ComBufferEj                                                                                                                                                                                              
000861ec  _ZN2Fw13OutputComPortC1Ev                                                                                                                                                                                                                  
000861ec  _ZN2Fw13OutputComPortC2Ev                                                                                                                                                                                                                  
000a1404  _ZN2Fw13OutputComPortD0Ev                                                                                                                                                                                                                  
000a27d4  _ZN2Fw13OutputComPortD1Ev                                                                                                                                                                                                                  
0007e6f4  _ZN2Fw13OutputLogPort11addCallPortEPNS_12InputLogPortE                                                                                                                                                                                     
0007dfe8  _ZN2Fw13OutputLogPort4initEv                                                                                                                                                                                                               
0007e5d4  _ZN2Fw13OutputLogPort6invokeEtRNS_4TimeENS_11LogSeverityERNS_9LogBufferE                                                                                                                                                                   
0007dfcc  _ZN2Fw13OutputLogPortC1Ev                                                                                                                                                                                                                  
0007dfcc  _ZN2Fw13OutputLogPortC2Ev                                                                                                                                                                                                                  
000a1420  _ZN2Fw13OutputLogPortD0Ev                                                                                                                                                                                                                  
000a27e8  _ZN2Fw13OutputLogPortD1Ev                                                                                                                                                                                                                  
00083404  _ZN2Fw13OutputTlmPort11addCallPortEPNS_12InputTlmPortE                                                                                                                                                                                     
00082e00  _ZN2Fw13OutputTlmPort4initEv                                                                                                                                                                                                               
00083310  _ZN2Fw13OutputTlmPort6invokeEtRNS_4TimeERNS_9TlmBufferE                                                                                                                                                                                    
00082de4  _ZN2Fw13OutputTlmPortC1Ev                                                                                                                                                                                                                  
00082de4  _ZN2Fw13OutputTlmPortC2Ev                                                                                                                                                                                                                  
000a143c  _ZN2Fw13OutputTlmPortD0Ev                                                                                                                                                                                                                  
000a27fc  _ZN2Fw13OutputTlmPortD1Ev                                                                                                                                                                                                                  
00099884  _ZN2Fw13TextLogString11deserializeERNS_19SerializeBufferBaseE                                                                                                                                                                              
0009982c  _ZN2Fw13TextLogString8copyBuffEPKcj                                                                                                                                                                                                        
00099814  _ZN2Fw13TextLogString9terminateEj                                                                                                                                                                                                          
00099980  _ZN2Fw13TextLogStringC1EPKc                                                                                                                                                                                                                
00099940  _ZN2Fw13TextLogStringC1ERKNS_10StringBaseE                                                                                                                                                                                                 
00099914  _ZN2Fw13TextLogStringC1ERKS0_                                                                                                                                                                                                              
000998f8  _ZN2Fw13TextLogStringC1Ev                                                                                                                                                                                                                  
00099980  _ZN2Fw13TextLogStringC2EPKc                                                                                                                                                                                                                
00099940  _ZN2Fw13TextLogStringC2ERKNS_10StringBaseE                                                                                                                                                                                                 
00099914  _ZN2Fw13TextLogStringC2ERKS0_                                                                                                                                                                                                              
000998f8  _ZN2Fw13TextLogStringC2Ev                                                                                                                                                                                                                  
00099870  _ZN2Fw13TextLogStringD0Ev                                                                                                                                                                                                                  
0009986c  _ZN2Fw13TextLogStringD1Ev                                                                                                                                                                                                                  
0009986c  _ZN2Fw13TextLogStringD2Ev                                                                                                                                                                                                                  
000998c0  _ZN2Fw13TextLogStringaSERKS0_                                                                                                                                                                                                              
0009ac34  _ZN2Fw14OutputPortBase12invokeSerialERNS_19SerializeBufferBaseE                                                                                                                                                                            
0009ac10  _ZN2Fw14OutputPortBase18registerSerialPortEPNS_13InputPortBaseE                                                                                                                                                                            
0009ac0c  _ZN2Fw14OutputPortBase4initEv                                                                                                                                                                                                              
0009aba4  _ZN2Fw14OutputPortBase8toStringEPci                                                                                                                                                                                                        
0009ab88  _ZN2Fw14OutputPortBaseC1Ev                                                                                                                                                                                                                 
0009ab88  _ZN2Fw14OutputPortBaseC2Ev                                                                                                                                                                                                                 
0009ab74  _ZN2Fw14OutputPortBaseD0Ev                                                                                                                                                                                                                 
0009ab70  _ZN2Fw14OutputPortBaseD1Ev                                                                                                                                                                                                                 
0009ab70  _ZN2Fw14OutputPortBaseD2Ev                                                                                                                                                                                                                 
0008d2f0  _ZN2Fw14OutputTimePort11addCallPortEPNS_13InputTimePortE                                                                                                                                                                                   
0008cce4  _ZN2Fw14OutputTimePort4initEv                                                                                                                                                                                                              
0008cdb8  _ZN2Fw14OutputTimePort6invokeERNS_4TimeE                                                                                                                                                                                                   
0008ccc8  _ZN2Fw14OutputTimePortC1Ev                                                                                                                                                                                                                 
0008ccc8  _ZN2Fw14OutputTimePortC2Ev                                                                                                                                                                                                                 
000a1458  _ZN2Fw14OutputTimePortD0Ev                                                                                                                                                                                                                 
000a2810  _ZN2Fw14OutputTimePortD1Ev                                                                                                                                                                                                                 
0008dc54  _ZN2Fw15InputCmdRegPort11addCallCompEPNS_20PassiveComponentBaseEPFvS2_itE                                                                                                                                                                  
0008d578  _ZN2Fw15InputCmdRegPort12invokeSerialERNS_19SerializeBufferBaseE                                                                                                                                                                           
0008d574  _ZN2Fw15InputCmdRegPort4initEv                                                                                                                                                                                                             
0008d5e0  _ZN2Fw15InputCmdRegPort6invokeEt                                                                                                                                                                                                           
0008dc38  _ZN2Fw15InputCmdRegPortC1Ev                                                                                                                                                                                                                
0008dc38  _ZN2Fw15InputCmdRegPortC2Ev                                                                                                                                                                                                                
000a2824  _ZN2Fw15InputCmdRegPortD0Ev                                                                                                                                                                                                                
000a3194  _ZN2Fw15InputCmdRegPortD1Ev                                                                                                                                                                                                                
0009a9b8  _ZN2Fw16EightyCharString11deserializeERNS_19SerializeBufferBaseE                                                                                                                                                                           
0009a960  _ZN2Fw16EightyCharString8copyBuffEPKcj                                                                                                                                                                                                     
0009a948  _ZN2Fw16EightyCharString9terminateEj                                                                                                                                                                                                       
0009aaa0  _ZN2Fw16EightyCharStringC1EPKc                                                                                                                                                                                                             
0009aa60  _ZN2Fw16EightyCharStringC1ERKNS_10StringBaseE                                                                                                                                                                                              
0009aa34  _ZN2Fw16EightyCharStringC1ERKS0_                                                                                                                                                                                                           
0009aa18  _ZN2Fw16EightyCharStringC1Ev                                                                                                                                                                                                               
0009aaa0  _ZN2Fw16EightyCharStringC2EPKc                                                                                                                                                                                                             
0009aa60  _ZN2Fw16EightyCharStringC2ERKNS_10StringBaseE                                                                                                                                                                                              
0009aa34  _ZN2Fw16EightyCharStringC2ERKS0_                                                                                                                                                                                                           
0009aa18  _ZN2Fw16EightyCharStringC2Ev                                                                                                                                                                                                               
0009a9a4  _ZN2Fw16EightyCharStringD0Ev                                                                                                                                                                                                               
0009a9a0  _ZN2Fw16EightyCharStringD1Ev                                                                                                                                                                                                               
0009a9a0  _ZN2Fw16EightyCharStringD2Ev                                                                                                                                                                                                               
0009a9f4  _ZN2Fw16EightyCharStringaSERKS0_                                                                                                                                                                                                           
0007c4d8  _ZN2Fw16InputLogTextPort11addCallCompEPNS_20PassiveComponentBaseEPFvS2_itRNS_4TimeENS_15TextLogSeverityERNS_13TextLogStringEE                                                                                                              
0007bcb8  _ZN2Fw16InputLogTextPort12invokeSerialERNS_19SerializeBufferBaseE                                                                                                                                                                          
0007bcb4  _ZN2Fw16InputLogTextPort4initEv                                                                                                                                                                                                            
0007bdc0  _ZN2Fw16InputLogTextPort6invokeEtRNS_4TimeENS_15TextLogSeverityERNS_13TextLogStringE                                                                                                                                                       
0007c4bc  _ZN2Fw16InputLogTextPortC1Ev                                                                                                                                                                                                               
0007c4bc  _ZN2Fw16InputLogTextPortC2Ev                                                                                                                                                                                                               
000a2838  _ZN2Fw16InputLogTextPortD0Ev                                                                                                                                                                                                               
000a3198  _ZN2Fw16InputLogTextPortD1Ev                                                                                                                                                                                                               
0008d788  _ZN2Fw16OutputCmdRegPort11addCallPortEPNS_15InputCmdRegPortE                                                                                                                                                                               
0008d570  _ZN2Fw16OutputCmdRegPort4initEv                                                                                                                                                                                                            
0008d6dc  _ZN2Fw16OutputCmdRegPort6invokeEt                                                                                                                                                                                                          
0008d554  _ZN2Fw16OutputCmdRegPortC1Ev                                                                                                                                                                                                               
0008d554  _ZN2Fw16OutputCmdRegPortC2Ev                                                                                                                                                                                                               
000a1474  _ZN2Fw16OutputCmdRegPortD0Ev                                                                                                                                                                                                               
000a284c  _ZN2Fw16OutputCmdRegPortD1Ev                                                                                                                                                                                                               
0007c490  _ZN2Fw17OutputLogTextPort11addCallPortEPNS_16InputLogTextPortE                                                                                                                                                                             
0007bcb0  _ZN2Fw17OutputLogTextPort4initEv                                                                                                                                                                                                           
0007c370  _ZN2Fw17OutputLogTextPort6invokeEtRNS_4TimeENS_15TextLogSeverityERNS_13TextLogStringE                                                                                                                                                      
0007bc94  _ZN2Fw17OutputLogTextPortC1Ev                                                                                                                                                                                                              
0007bc94  _ZN2Fw17OutputLogTextPortC2Ev                                                                                                                                                                                                              
000a1490  _ZN2Fw17OutputLogTextPortD0Ev                                                                                                                                                                                                              
000a2860  _ZN2Fw17OutputLogTextPortD1Ev                                                                                                                                                                                                              
00095014  _ZN2Fw19ActiveComponentBase10s_baseTaskEPv                                                                                                                                                                                                 
000950a0  _ZN2Fw19ActiveComponentBase4exitEv                                                                                                                                                                                                         
0009509c  _ZN2Fw19ActiveComponentBase4initEi                                                                                                                                                                                                         
00095094  _ZN2Fw19ActiveComponentBase4joinEPPv                                                                                                                                                                                                       
0009505c  _ZN2Fw19ActiveComponentBase4loopEv                                                                                                                                                                                                         
00094f80  _ZN2Fw19ActiveComponentBase5startEiiii                                                                                                                                                                                                     
00094f7c  _ZN2Fw19ActiveComponentBase8preambleEv                                                                                                                                                                                                     
00094f4c  _ZN2Fw19ActiveComponentBase8toStringEPci                                                                                                                                                                                                   
00094f48  _ZN2Fw19ActiveComponentBase9finalizerEv                                                                                                                                                                                                    
00094f24  _ZN2Fw19ActiveComponentBaseC1EPKc                                                                                                                                                                                                          
00094f24  _ZN2Fw19ActiveComponentBaseC2EPKc                                                                                                                                                                                                          
00094f10  _ZN2Fw19ActiveComponentBaseD0Ev                                                                                                                                                                                                            
00094ef4  _ZN2Fw19ActiveComponentBaseD1Ev                                                                                                                                                                                                            
00094ef4  _ZN2Fw19ActiveComponentBaseD2Ev                                                                                                                                                                                                            
00088e24  _ZN2Fw19InputBufferSendPort11addCallCompEPNS_20PassiveComponentBaseEPFvS2_iRNS_6BufferEE                                                                                                                                                   
000886fc  _ZN2Fw19InputBufferSendPort12invokeSerialERNS_19SerializeBufferBaseE                                                                                                                                                                       
000886f8  _ZN2Fw19InputBufferSendPort4initEv                                                                                                                                                                                                         
00088780  _ZN2Fw19InputBufferSendPort6invokeERNS_6BufferE                                                                                                                                                                                            
00088e08  _ZN2Fw19InputBufferSendPortC1Ev                                                                                                                                                                                                            
00088e08  _ZN2Fw19InputBufferSendPortC2Ev                                                                                                                                                                                                            
000a14ac  _ZN2Fw19InputBufferSendPortD0Ev                                                                                                                                                                                                            
000a2874  _ZN2Fw19InputBufferSendPortD1Ev                                                                                                                                                                                                            
0009cda8  _ZN2Fw19QueuedComponentBase11createQueueEii                                                                                                                                                                                                
0009cd98  _ZN2Fw19QueuedComponentBase16incNumMsgDroppedEv                                                                                                                                                                                            
0009cd90  _ZN2Fw19QueuedComponentBase17getNumMsgsDroppedEv                                                                                                                                                                                           
0009cd8c  _ZN2Fw19QueuedComponentBase4initEi                                                                                                                                                                                                         
0009cd5c  _ZN2Fw19QueuedComponentBase8toStringEPci                                                                                                                                                                                                   
0009cd30  _ZN2Fw19QueuedComponentBaseC1EPKc                                                                                                                                                                                                          
0009cd30  _ZN2Fw19QueuedComponentBaseC2EPKc                                                                                                                                                                                                          
0009cd1c  _ZN2Fw19QueuedComponentBaseD0Ev                                                                                                                                                                                                            
0009cd00  _ZN2Fw19QueuedComponentBaseD1Ev                                                                                                                                                                                                            
0009cd00  _ZN2Fw19QueuedComponentBaseD2Ev                                                                                                                                                                                                            
0006725c  _ZN2Fw19SerializeBufferBase10resetDeserEv                                                                                                                                                                                                  
00066f50  _ZN2Fw19SerializeBufferBase10setBuffLenEj                                                                                                                                                                                                  
00067160  _ZN2Fw19SerializeBufferBase11deserializeEPhRjb                                                                                                                                                                                             
00067140  _ZN2Fw19SerializeBufferBase11deserializeERNS_12SerializableE                                                                                                                                                                               
00067138  _ZN2Fw19SerializeBufferBase11deserializeERPv                                                                                                                                                                                               
0006702c  _ZN2Fw19SerializeBufferBase11deserializeERS0_                                                                                                                                                                                              
00066ee0  _ZN2Fw19SerializeBufferBase11deserializeERa                                                                                                                                                                                                
00066e3c  _ZN2Fw19SerializeBufferBase11deserializeERb                                                                                                                                                                                                
00066cbc  _ZN2Fw19SerializeBufferBase11deserializeERd                                                                                                                                                                                                
00066c88  _ZN2Fw19SerializeBufferBase11deserializeERf                                                                                                                                                                                                
00066c18  _ZN2Fw19SerializeBufferBase11deserializeERh                                                                                                                                                                                                
000669c4  _ZN2Fw19SerializeBufferBase11deserializeERib                                                                                                                                                                                               
000668c8  _ZN2Fw19SerializeBufferBase11deserializeERjb                                                                                                                                                                                               
00066758  _ZN2Fw19SerializeBufferBase11deserializeERsb                                                                                                                                                                                               
00066694  _ZN2Fw19SerializeBufferBase11deserializeERtb                                                                                                                                                                                               
000664c4  _ZN2Fw19SerializeBufferBase11deserializeERxb                                                                                                                                                                                               
00066100  _ZN2Fw19SerializeBufferBase11deserializeERyb                                                                                                                                                                                               
0006607c  _ZN2Fw19SerializeBufferBase13copyRawOffsetERS0_j                                                                                                                                                                                           
0006605c  _ZN2Fw19SerializeBufferBase14getBuffAddrSerEv                                                                                                                                                                                              
0006602c  _ZN2Fw19SerializeBufferBase15deserializeSkipEj                                                                                                                                                                                             
00065fd8  _ZN2Fw19SerializeBufferBase7copyRawERS0_j                                                                                                                                                                                                  
00065f54  _ZN2Fw19SerializeBufferBase7setBuffEPKhj                                                                                                                                                                                                   
000649e4  _ZN2Fw19SerializeBufferBase8copyFromERKS0_                                                                                                                                                                                                 
00065c9c  _ZN2Fw19SerializeBufferBase8resetSerEv                                                                                                                                                                                                     
00065c14  _ZN2Fw19SerializeBufferBase9serializeEPKhjb                                                                                                                                                                                                
00065b2c  _ZN2Fw19SerializeBufferBase9serializeEPKv                                                                                                                                                                                                  
00065b0c  _ZN2Fw19SerializeBufferBase9serializeERKNS_12SerializableE                                                                                                                                                                                 
00065a30  _ZN2Fw19SerializeBufferBase9serializeERKS0_                                                                                                                                                                                                
000659b8  _ZN2Fw19SerializeBufferBase9serializeEa                                                                                                                                                                                                    
0006591c  _ZN2Fw19SerializeBufferBase9serializeEb                                                                                                                                                                                                    
00065838  _ZN2Fw19SerializeBufferBase9serializeEd                                                                                                                                                                                                    
00065804  _ZN2Fw19SerializeBufferBase9serializeEf                                                                                                                                                                                                    
00065788  _ZN2Fw19SerializeBufferBase9serializeEh                                                                                                                                                                                                    
00065480  _ZN2Fw19SerializeBufferBase9serializeEib                                                                                                                                                                                                   
000652d0  _ZN2Fw19SerializeBufferBase9serializeEjb                                                                                                                                                                                                   
0006520c  _ZN2Fw19SerializeBufferBase9serializeEsb                                                                                                                                                                                                   
00065148  _ZN2Fw19SerializeBufferBase9serializeEtb                                                                                                                                                                                                   
00064fc0  _ZN2Fw19SerializeBufferBase9serializeExb                                                                                                                                                                                                   
00064ad0  _ZN2Fw19SerializeBufferBase9serializeEyb                                                                                                                                                                                                   
00064ab4  _ZN2Fw19SerializeBufferBaseC1ERKS0_                                                                                                                                                                                                        
0006495c  _ZN2Fw19SerializeBufferBaseC1Ev                                                                                                                                                                                                            
00064ab4  _ZN2Fw19SerializeBufferBaseC2ERKS0_                                                                                                                                                                                                        
0006495c  _ZN2Fw19SerializeBufferBaseC2Ev                                                                                                                                                                                                            
00064904  _ZN2Fw19SerializeBufferBaseD0Ev                                                                                                                                                                                                            
00064900  _ZN2Fw19SerializeBufferBaseD1Ev                                                                                                                                                                                                            
00064900  _ZN2Fw19SerializeBufferBaseD2Ev                                                                                                                                                                                                            
00064aa0  _ZN2Fw19SerializeBufferBaseaSERKS0_                                                                                                                                                                                                        
00082a48  _ZN2Fw20InputCmdResponsePort11addCallCompEPNS_20PassiveComponentBaseEPFvS2_itjNS_15CommandResponseEE                                                                                                                                       
00082340  _ZN2Fw20InputCmdResponsePort12invokeSerialERNS_19SerializeBufferBaseE                                                                                                                                                                      
0008233c  _ZN2Fw20InputCmdResponsePort4initEv                                                                                                                                                                                                        
000823f4  _ZN2Fw20InputCmdResponsePort6invokeEtjNS_15CommandResponseE                                                                                                                                                                                
00082a2c  _ZN2Fw20InputCmdResponsePortC1Ev                                                                                                                                                                                                           
00082a2c  _ZN2Fw20InputCmdResponsePortC2Ev                                                                                                                                                                                                           
000a2888  _ZN2Fw20InputCmdResponsePortD0Ev                                                                                                                                                                                                           
000a319c  _ZN2Fw20InputCmdResponsePortD1Ev                                                                                                                                                                                                           
0008e978  _ZN2Fw20IrisCmdByteStringArg10appendBuffEPKcj                                                                                                                                                                                              
0008e67c  _ZN2Fw20IrisCmdByteStringArg11deserializeERNS_19SerializeBufferBaseE                                                                                                                                                                       
0008e74c  _ZN2Fw20IrisCmdByteStringArg13setActualSizeEj                                                                                                                                                                                              
0008ecf0  _ZN2Fw20IrisCmdByteStringArg6formatEPKcz                                                                                                                                                                                                   
0008e7a4  _ZN2Fw20IrisCmdByteStringArg8copyBuffEPKcj                                                                                                                                                                                                 
0008e788  _ZN2Fw20IrisCmdByteStringArg9terminateEj                                                                                                                                                                                                   
0008ecdc  _ZN2Fw20IrisCmdByteStringArgC1EPKc                                                                                                                                                                                                         
0008ecc8  _ZN2Fw20IrisCmdByteStringArgC1ERKNS_10StringBaseE                                                                                                                                                                                          
0008ecb4  _ZN2Fw20IrisCmdByteStringArgC1ERKNS_12CmdStringArgE                                                                                                                                                                                        
0008ec88  _ZN2Fw20IrisCmdByteStringArgC1ERKS0_                                                                                                                                                                                                       
0008ec68  _ZN2Fw20IrisCmdByteStringArgC1Ev                                                                                                                                                                                                           
0008ecdc  _ZN2Fw20IrisCmdByteStringArgC2EPKc                                                                                                                                                                                                         
0008ecc8  _ZN2Fw20IrisCmdByteStringArgC2ERKNS_10StringBaseE                                                                                                                                                                                          
0008ecb4  _ZN2Fw20IrisCmdByteStringArgC2ERKNS_12CmdStringArgE                                                                                                                                                                                        
0008ec88  _ZN2Fw20IrisCmdByteStringArgC2ERKS0_                                                                                                                                                                                                       
0008ec68  _ZN2Fw20IrisCmdByteStringArgC2Ev                                                                                                                                                                                                           
0008e668  _ZN2Fw20IrisCmdByteStringArgD0Ev                                                                                                                                                                                                           
0008e664  _ZN2Fw20IrisCmdByteStringArgD1Ev                                                                                                                                                                                                           
0008e664  _ZN2Fw20IrisCmdByteStringArgD2Ev                                                                                                                                                                                                           
0008ec24  _ZN2Fw20IrisCmdByteStringArgaSEPKc                                                                                                                                                                                                         
0008eb3c  _ZN2Fw20IrisCmdByteStringArgaSERKNS_10StringBaseE                                                                                                                                                                                          
0008eaf0  _ZN2Fw20IrisCmdByteStringArgaSERKNS_12CmdStringArgE                                                                                                                                                                                        
0008ea8c  _ZN2Fw20IrisCmdByteStringArgaSERKS0_                                                                                                                                                                                                       
0008ea58  _ZN2Fw20IrisCmdByteStringArgpLEPKc                                                                                                                                                                                                         
0008ea14  _ZN2Fw20IrisCmdByteStringArgpLERKNS_10StringBaseE                                                                                                                                                                                          
00088ddc  _ZN2Fw20OutputBufferSendPort11addCallPortEPNS_19InputBufferSendPortE                                                                                                                                                                       
000886f4  _ZN2Fw20OutputBufferSendPort4initEv                                                                                                                                                                                                        
00088880  _ZN2Fw20OutputBufferSendPort6invokeERNS_6BufferE                                                                                                                                                                                           
000886d8  _ZN2Fw20OutputBufferSendPortC1Ev                                                                                                                                                                                                           
000886d8  _ZN2Fw20OutputBufferSendPortC2Ev                                                                                                                                                                                                           
000a14c8  _ZN2Fw20OutputBufferSendPortD0Ev                                                                                                                                                                                                           
000a289c  _ZN2Fw20OutputBufferSendPortD1Ev                                                                                                                                                                                                           
0009c704  _ZN2Fw20PassiveComponentBase4initEi                                                                                                                                                                                                        
0009c6c4  _ZN2Fw20PassiveComponentBase8toStringEPci                                                                                                                                                                                                  
0009c6bc  _ZN2Fw20PassiveComponentBase9setIdBaseEj                                                                                                                                                                                                   
0009c69c  _ZN2Fw20PassiveComponentBaseC1EPKc                                                                                                                                                                                                         
0009c69c  _ZN2Fw20PassiveComponentBaseC2EPKc                                                                                                                                                                                                         
0009c688  _ZN2Fw20PassiveComponentBaseD0Ev                                                                                                                                                                                                           
0009c684  _ZN2Fw20PassiveComponentBaseD1Ev                                                                                                                                                                                                           
0009c684  _ZN2Fw20PassiveComponentBaseD2Ev                                                                                                                                                                                                           
00082a00  _ZN2Fw21OutputCmdResponsePort11addCallPortEPNS_20InputCmdResponsePortE                                                                                                                                                                     
00082338  _ZN2Fw21OutputCmdResponsePort4initEv                                                                                                                                                                                                       
00082904  _ZN2Fw21OutputCmdResponsePort6invokeEtjNS_15CommandResponseE                                                                                                                                                                               
0008231c  _ZN2Fw21OutputCmdResponsePortC1Ev                                                                                                                                                                                                          
0008231c  _ZN2Fw21OutputCmdResponsePortC2Ev                                                                                                                                                                                                          
000a14e4  _ZN2Fw21OutputCmdResponsePortD0Ev                                                                                                                                                                                                          
000a28b0  _ZN2Fw21OutputCmdResponsePortD1Ev                                                                                                                                                                                                          
000648f8  _ZN2Fw23ExternalSerializeBuffer11getBuffAddrEv                                                                                                                                                                                             
0006499c  _ZN2Fw23ExternalSerializeBuffer12setExtBufferEPhj                                                                                                                                                                                          
00064974  _ZN2Fw23ExternalSerializeBuffer5clearEv                                                                                                                                                                                                    
000649c4  _ZN2Fw23ExternalSerializeBufferC1EPhj                                                                                                                                                                                                      
00064984  _ZN2Fw23ExternalSerializeBufferC1Ev                                                                                                                                                                                                        
000649c4  _ZN2Fw23ExternalSerializeBufferC2EPhj                                                                                                                                                                                                      
00064984  _ZN2Fw23ExternalSerializeBufferC2Ev                                                                                                                                                                                                        
000a2f48  _ZN2Fw23ExternalSerializeBufferD0Ev                                                                                                                                                                                                        
000a31a0  _ZN2Fw23ExternalSerializeBufferD1Ev                                                                                                                                                                                                        
000a2f50  _ZN2Fw37ActiveComponentExitSerializableBuffer11getBuffAddrEv                                                                                                                                                                               
000a28c4  _ZN2Fw37ActiveComponentExitSerializableBufferD0Ev                                                                                                                                                                                          
000a31a4  _ZN2Fw37ActiveComponentExitSerializableBufferD1Ev                                                                                                                                                                                          
000a2f58  _ZN2Fw37_GLOBAL__N__13_CmdPortAc_cpp_9d3e2db413CmdPortBuffer11getBuffAddrEv                                                                                                                                                                
000a28d8  _ZN2Fw37_GLOBAL__N__13_CmdPortAc_cpp_9d3e2db413CmdPortBufferD0Ev                                                                                                                                                                           
000a31a8  _ZN2Fw37_GLOBAL__N__13_CmdPortAc_cpp_9d3e2db413CmdPortBufferD1Ev                                                                                                                                                                           
000a2f60  _ZN2Fw37_GLOBAL__N__13_ComPortAc_cpp_35684bd213ComPortBuffer11getBuffAddrEv                                                                                                                                                                
000a28ec  _ZN2Fw37_GLOBAL__N__13_ComPortAc_cpp_35684bd213ComPortBufferD0Ev                                                                                                                                                                           
000a31ac  _ZN2Fw37_GLOBAL__N__13_ComPortAc_cpp_35684bd213ComPortBufferD1Ev                                                                                                                                                                           
000a2f68  _ZN2Fw37_GLOBAL__N__13_LogPortAc_cpp_33be358a13LogPortBuffer11getBuffAddrEv                                                                                                                                                                
000a2900  _ZN2Fw37_GLOBAL__N__13_LogPortAc_cpp_33be358a13LogPortBufferD0Ev                                                                                                                                                                           
000a31b0  _ZN2Fw37_GLOBAL__N__13_LogPortAc_cpp_33be358a13LogPortBufferD1Ev                                                                                                                                                                           
000a2f70  _ZN2Fw37_GLOBAL__N__13_TlmPortAc_cpp_5992219913TlmPortBuffer11getBuffAddrEv                                                                                                                                                                
000a2914  _ZN2Fw37_GLOBAL__N__13_TlmPortAc_cpp_5992219913TlmPortBufferD0Ev                                                                                                                                                                           
000a31b4  _ZN2Fw37_GLOBAL__N__13_TlmPortAc_cpp_5992219913TlmPortBufferD1Ev                                                                                                                                                                           
000a2f78  _ZN2Fw38_GLOBAL__N__14_TimePortAc_cpp_e154eb8414TimePortBuffer11getBuffAddrEv                                                                                                                                                              
000a2928  _ZN2Fw38_GLOBAL__N__14_TimePortAc_cpp_e154eb8414TimePortBufferD0Ev                                                                                                                                                                         
000a31b8  _ZN2Fw38_GLOBAL__N__14_TimePortAc_cpp_e154eb8414TimePortBufferD1Ev                                                                                                                                                                         
000a2f80  _ZN2Fw40_GLOBAL__N__16_CmdRegPortAc_cpp_22987e6f16CmdRegPortBuffer11getBuffAddrEv                                                                                                                                                          
000a293c  _ZN2Fw40_GLOBAL__N__16_CmdRegPortAc_cpp_22987e6f16CmdRegPortBufferD0Ev                                                                                                                                                                     
000a31bc  _ZN2Fw40_GLOBAL__N__16_CmdRegPortAc_cpp_22987e6f16CmdRegPortBufferD1Ev                                                                                                                                                                     
000a2f88  _ZN2Fw41_GLOBAL__N__17_LogTextPortAc_cpp_dae56cfb17LogTextPortBuffer11getBuffAddrEv                                                                                                                                                        
000a2950  _ZN2Fw41_GLOBAL__N__17_LogTextPortAc_cpp_dae56cfb17LogTextPortBufferD0Ev                                                                                                                                                                   
000a31c0  _ZN2Fw41_GLOBAL__N__17_LogTextPortAc_cpp_dae56cfb17LogTextPortBufferD1Ev                                                                                                                                                                   
000a2f90  _ZN2Fw44_GLOBAL__N__20_BufferSendPortAc_cpp_c3bf741720BufferSendPortBuffer11getBuffAddrEv                                                                                                                                                  
000a2964  _ZN2Fw44_GLOBAL__N__20_BufferSendPortAc_cpp_c3bf741720BufferSendPortBufferD0Ev                                                                                                                                                             
000a31c4  _ZN2Fw44_GLOBAL__N__20_BufferSendPortAc_cpp_c3bf741720BufferSendPortBufferD1Ev                                                                                                                                                             
000a2f98  _ZN2Fw45_GLOBAL__N__21_CmdResponsePortAc_cpp_ade7c34621CmdResponsePortBuffer11getBuffAddrEv                                                                                                                                                
000a2978  _ZN2Fw45_GLOBAL__N__21_CmdResponsePortAc_cpp_ade7c34621CmdResponsePortBufferD0Ev                                                                                                                                                           
000a31c8  _ZN2Fw45_GLOBAL__N__21_CmdResponsePortAc_cpp_ade7c34621CmdResponsePortBufferD1Ev                                                                                                                                                           
0008f9f0  _ZN2Fw4Time11deserializeERNS_19SerializeBufferBaseE                                                                                                                                                                                        
0008f9e8  _ZN2Fw4Time11setTimeBaseE8TimeBase                                                                                                                                                                                                         
0008f9b4  _ZN2Fw4Time11set_time_msEj                                                                                                                                                                                                                 
0008f9ac  _ZN2Fw4Time14setTimeContextEh                                                                                                                                                                                                              
0008f928  _ZN2Fw4Time3addERS0_S1_                                                                                                                                                                                                                    
0008f8dc  _ZN2Fw4Time3addEjj                                                                                                                                                                                                                         
0008f71c  _ZN2Fw4Time3setE8TimeBasehjj                                                                                                                                                                                                               
0008f8c4  _ZN2Fw4Time3setE8TimeBasejj                                                                                                                                                                                                                
0008f8ac  _ZN2Fw4Time3setEjj                                                                                                                                                                                                                         
0008f83c  _ZN2Fw4Time3subERS0_S1_                                                                                                                                                                                                                    
0008f800  _ZN2Fw4Time4zeroE8TimeBase                                                                                                                                                                                                                 
0008f570  _ZN2Fw4Time7compareERKS0_S2_                                                                                                                                                                                                               
0008f7c8  _ZN2Fw4TimeC1E8TimeBasehjj                                                                                                                                                                                                                 
0008f794  _ZN2Fw4TimeC1E8TimeBasejj                                                                                                                                                                                                                  
0008f764  _ZN2Fw4TimeC1ERKS0_                                                                                                                                                                                                                        
0008f734  _ZN2Fw4TimeC1Ejj                                                                                                                                                                                                                           
0008f6f4  _ZN2Fw4TimeC1Ev                                                                                                                                                                                                                            
0008f7c8  _ZN2Fw4TimeC2E8TimeBasehjj                                                                                                                                                                                                                 
0008f794  _ZN2Fw4TimeC2E8TimeBasejj                                                                                                                                                                                                                  
0008f764  _ZN2Fw4TimeC2ERKS0_                                                                                                                                                                                                                        
0008f734  _ZN2Fw4TimeC2Ejj                                                                                                                                                                                                                           
0008f6f4  _ZN2Fw4TimeC2Ev                                                                                                                                                                                                                            
0008f6e0  _ZN2Fw4TimeD0Ev                                                                                                                                                                                                                            
0008f6dc  _ZN2Fw4TimeD1Ev                                                                                                                                                                                                                            
0008f6dc  _ZN2Fw4TimeD2Ev                                                                                                                                                                                                                            
0008f6b4  _ZN2Fw4TimeaSERKS0_                                                                                                                                                                                                                        
00095ddc  _ZN2Fw6Buffer11deserializeERNS_19SerializeBufferBaseE                                                                                                                                                                                      
00095dd4  _ZN2Fw6Buffer11getbufferIDEv                                                                                                                                                                                                               
00095dcc  _ZN2Fw6Buffer11setbufferIDEj                                                                                                                                                                                                               
00095dc4  _ZN2Fw6Buffer12getmanagerIDEv                                                                                                                                                                                                              
00095dbc  _ZN2Fw6Buffer12setmanagerIDEj                                                                                                                                                                                                              
00095c5c  _ZN2Fw6Buffer3setEjjyj                                                                                                                                                                                                                     
00095db0  _ZN2Fw6Buffer7getdataEv                                                                                                                                                                                                                    
00095da8  _ZN2Fw6Buffer7getsizeEv                                                                                                                                                                                                                    
00095d9c  _ZN2Fw6Buffer7setdataEy                                                                                                                                                                                                                    
00095d94  _ZN2Fw6Buffer7setsizeEj                                                                                                                                                                                                                    
00095d44  _ZN2Fw6BufferC1EPKS0_                                                                                                                                                                                                                      
00095d08  _ZN2Fw6BufferC1ERKS0_                                                                                                                                                                                                                      
00095cc8  _ZN2Fw6BufferC1Ejjyj                                                                                                                                                                                                                       
00095cb4  _ZN2Fw6BufferC1Ev                                                                                                                                                                                                                          
00095d44  _ZN2Fw6BufferC2EPKS0_                                                                                                                                                                                                                      
00095d08  _ZN2Fw6BufferC2ERKS0_                                                                                                                                                                                                                      
00095cc8  _ZN2Fw6BufferC2Ejjyj                                                                                                                                                                                                                       
00095cb4  _ZN2Fw6BufferC2Ev                                                                                                                                                                                                                          
000a1500  _ZN2Fw6BufferD0Ev                                                                                                                                                                                                                          
000a298c  _ZN2Fw6BufferD1Ev                                                                                                                                                                                                                          
00095c84  _ZN2Fw6BufferaSERKS0_                                                                                                                                                                                                                      
0009db00  _ZN2Fw7ObjBase10getObjNameEv                                                                                                                                                                                                               
0009da48  _ZN2Fw7ObjBase10setObjNameEPKc                                                                                                                                                                                                             
0802f290  _ZN2Fw7ObjBase13s_objRegistryE                                                                                                                                                                                                             
0009daf4  _ZN2Fw7ObjBase14setObjRegistryEPNS_11ObjRegistryE                                                                                                                                                                                          
0009dac8  _ZN2Fw7ObjBase4initEv                                                                                                                                                                                                                      
0009da8c  _ZN2Fw7ObjBase8toStringEPci                                                                                                                                                                                                                
0009da68  _ZN2Fw7ObjBaseC1EPKc                                                                                                                                                                                                                       
0009da68  _ZN2Fw7ObjBaseC2EPKc                                                                                                                                                                                                                       
0009da40  _ZN2Fw7ObjBaseD0Ev                                                                                                                                                                                                                         
0009da3c  _ZN2Fw7ObjBaseD1Ev                                                                                                                                                                                                                         
0009da3c  _ZN2Fw7ObjBaseD2Ev                                                                                                                                                                                                                         
0009de58  _ZN2Fw8PortBase11isConnectedEv                                                                                                                                                                                                             
0009de54  _ZN2Fw8PortBase4initEv                                                                                                                                                                                                                     
0009ddf4  _ZN2Fw8PortBase8toStringEPci                                                                                                                                                                                                               
0009ddd4  _ZN2Fw8PortBaseC1Ev                                                                                                                                                                                                                        
0009ddd4  _ZN2Fw8PortBaseC2Ev                                                                                                                                                                                                                        
0009ddc0  _ZN2Fw8PortBaseD0Ev                                                                                                                                                                                                                        
0009ddbc  _ZN2Fw8PortBaseD1Ev                                                                                                                                                                                                                        
0009ddbc  _ZN2Fw8PortBaseD2Ev                                                                                                                                                                                                                        
0009be38  _ZN2Fw9CmdPacket11deserializeERNS_19SerializeBufferBaseE                                                                                                                                                                                   
0009be30  _ZN2Fw9CmdPacket12getArgBufferEv                                                                                                                                                                                                           
0009bdfc  _ZN2Fw9CmdPacketC1Ev                                                                                                                                                                                                                       
0009bdfc  _ZN2Fw9CmdPacketC2Ev                                                                                                                                                                                                                       
0009bde8  _ZN2Fw9CmdPacketD0Ev                                                                                                                                                                                                                       
0009bdcc  _ZN2Fw9CmdPacketD1Ev                                                                                                                                                                                                                       
0009bdcc  _ZN2Fw9CmdPacketD2Ev                                                                                                                                                                                                                       
00097f50  _ZN2Fw9ComBuffer11getBuffAddrEv                                                                                                                                                                                                            
00097f10  _ZN2Fw9ComBufferC1EPKhj                                                                                                                                                                                                                    
00097ec8  _ZN2Fw9ComBufferC1ERKS0_                                                                                                                                                                                                                   
00097eb4  _ZN2Fw9ComBufferC1Ev                                                                                                                                                                                                                       
00097f10  _ZN2Fw9ComBufferC2EPKhj                                                                                                                                                                                                                    
00097ec8  _ZN2Fw9ComBufferC2ERKS0_                                                                                                                                                                                                                   
00097eb4  _ZN2Fw9ComBufferC2Ev                                                                                                                                                                                                                       
00097ea0  _ZN2Fw9ComBufferD0Ev                                                                                                                                                                                                                       
00097e9c  _ZN2Fw9ComBufferD1Ev                                                                                                                                                                                                                       
00097e9c  _ZN2Fw9ComBufferD2Ev                                                                                                                                                                                                                       
00097e60  _ZN2Fw9ComBufferaSERKS0_                                                                                                                                                                                                                   
0009eec4  _ZN2Fw9ComPacket15deserializeBaseERNS_19SerializeBufferBaseE                                                                                                                                                                               
0009eea8  _ZN2Fw9ComPacketC1Ev                                                                                                                                                                                                                       
0009eea8  _ZN2Fw9ComPacketC2Ev                                                                                                                                                                                                                       
0009ee94  _ZN2Fw9ComPacketD0Ev                                                                                                                                                                                                                       
0009ee90  _ZN2Fw9ComPacketD1Ev                                                                                                                                                                                                                       
0009ee90  _ZN2Fw9ComPacketD2Ev                                                                                                                                                                                                                       
00098254  _ZN2Fw9LogBuffer11getBuffAddrEv                                                                                                                                                                                                            
00098214  _ZN2Fw9LogBufferC1EPKhj                                                                                                                                                                                                                    
000981cc  _ZN2Fw9LogBufferC1ERKS0_                                                                                                                                                                                                                   
000981b8  _ZN2Fw9LogBufferC1Ev                                                                                                                                                                                                                       
00098214  _ZN2Fw9LogBufferC2EPKhj                                                                                                                                                                                                                    
000981cc  _ZN2Fw9LogBufferC2ERKS0_                                                                                                                                                                                                                   
000981b8  _ZN2Fw9LogBufferC2Ev                                                                                                                                                                                                                       
000981a4  _ZN2Fw9LogBufferD0Ev                                                                                                                                                                                                                       
000981a0  _ZN2Fw9LogBufferD1Ev                                                                                                                                                                                                                       
000981a0  _ZN2Fw9LogBufferD2Ev                                                                                                                                                                                                                       
00098164  _ZN2Fw9LogBufferaSERKS0_                                                                                                                                                                                                                   
0009a0f0  _ZN2Fw9LogPacket10getTimeTagEv                                                                                                                                                                                                             
0009a0e8  _ZN2Fw9LogPacket10setTimeTagERNS_4TimeE                                                                                                                                                                                                    
0009a044  _ZN2Fw9LogPacket11deserializeERNS_19SerializeBufferBaseE                                                                                                                                                                                   
0009a03c  _ZN2Fw9LogPacket12getLogBufferEv                                                                                                                                                                                                           
0009a034  _ZN2Fw9LogPacket12setLogBufferERNS_9LogBufferE                                                                                                                                                                                             
0009a02c  _ZN2Fw9LogPacket5getIdEv                                                                                                                                                                                                                   
0009a024  _ZN2Fw9LogPacket5setIdEt                                                                                                                                                                                                                   
00099fe8  _ZN2Fw9LogPacketC1Ev                                                                                                                                                                                                                       
00099fe8  _ZN2Fw9LogPacketC2Ev                                                                                                                                                                                                                       
00099fd4  _ZN2Fw9LogPacketD0Ev                                                                                                                                                                                                                       
00099fb0  _ZN2Fw9LogPacketD1Ev                                                                                                                                                                                                                       
00099fb0  _ZN2Fw9LogPacketD2Ev                                                                                                                                                                                                                       
00098558  _ZN2Fw9TlmBuffer11getBuffAddrEv                                                                                                                                                                                                            
00098518  _ZN2Fw9TlmBufferC1EPKhj                                                                                                                                                                                                                    
000984d0  _ZN2Fw9TlmBufferC1ERKS0_                                                                                                                                                                                                                   
000984bc  _ZN2Fw9TlmBufferC1Ev                                                                                                                                                                                                                       
00098518  _ZN2Fw9TlmBufferC2EPKhj                                                                                                                                                                                                                    
000984d0  _ZN2Fw9TlmBufferC2ERKS0_                                                                                                                                                                                                                   
000984bc  _ZN2Fw9TlmBufferC2Ev                                                                                                                                                                                                                       
000984a8  _ZN2Fw9TlmBufferD0Ev                                                                                                                                                                                                                       
000984a4  _ZN2Fw9TlmBufferD1Ev                                                                                                                                                                                                                       
000984a4  _ZN2Fw9TlmBufferD2Ev                                                                                                                                                                                                                       
00098468  _ZN2Fw9TlmBufferaSERKS0_                                                                                                                                                                                                                   
0009a364  _ZN2Fw9TlmPacket10getTimeTagEv                                                                                                                                                                                                             
0009a35c  _ZN2Fw9TlmPacket10setTimeTagERNS_4TimeE                                                                                                                                                                                                    
0009a2b8  _ZN2Fw9TlmPacket11deserializeERNS_19SerializeBufferBaseE                                                                                                                                                                                   
0009a2b0  _ZN2Fw9TlmPacket12getTlmBufferEv                                                                                                                                                                                                           
0009a2a8  _ZN2Fw9TlmPacket12setTlmBufferERNS_9TlmBufferE                                                                                                                                                                                             
0009a2a0  _ZN2Fw9TlmPacket5getIdEv                                                                                                                                                                                                                   
0009a298  _ZN2Fw9TlmPacket5setIdEt                                                                                                                                                                                                                   
0009a25c  _ZN2Fw9TlmPacketC1Ev                                                                                                                                                                                                                       
0009a25c  _ZN2Fw9TlmPacketC2Ev                                                                                                                                                                                                                       
0009a248  _ZN2Fw9TlmPacketD0Ev                                                                                                                                                                                                                       
0009a224  _ZN2Fw9TlmPacketD1Ev                                                                                                                                                                                                                       
0009a224  _ZN2Fw9TlmPacketD2Ev                                                                                                                                                                                                                       
0009a748  _ZN2Os10TaskString11deserializeERN2Fw19SerializeBufferBaseE                                                                                                                                                                                
0009a6ec  _ZN2Os10TaskString8copyBuffEPKcj                                                                                                                                                                                                           
0009a6d4  _ZN2Os10TaskString9terminateEj                                                                                                                                                                                                             
0009a844  _ZN2Os10TaskStringC1EPKc                                                                                                                                                                                                                   
0009a804  _ZN2Os10TaskStringC1ERKN2Fw10StringBaseE                                                                                                                                                                                                   
0009a7d8  _ZN2Os10TaskStringC1ERKS0_                                                                                                                                                                                                                 
0009a7bc  _ZN2Os10TaskStringC1Ev                                                                                                                                                                                                                     
0009a844  _ZN2Os10TaskStringC2EPKc                                                                                                                                                                                                                   
0009a804  _ZN2Os10TaskStringC2ERKN2Fw10StringBaseE                                                                                                                                                                                                   
0009a7d8  _ZN2Os10TaskStringC2ERKS0_                                                                                                                                                                                                                 
0009a7bc  _ZN2Os10TaskStringC2Ev                                                                                                                                                                                                                     
0009a734  _ZN2Os10TaskStringD0Ev                                                                                                                                                                                                                     
0009a730  _ZN2Os10TaskStringD1Ev                                                                                                                                                                                                                     
0009a730  _ZN2Os10TaskStringD2Ev                                                                                                                                                                                                                     
0009a784  _ZN2Os10TaskStringaSERKS0_                                                                                                                                                                                                                 
000a2fa0  _ZN2Os11QueueString11deserializeERN2Fw19SerializeBufferBaseE                                                                                                                                                                               
0009b4d4  _ZN2Os11QueueString8copyBuffEPKcj                                                                                                                                                                                                          
0009b4bc  _ZN2Os11QueueString9terminateEj                                                                                                                                                                                                            
0009b5ec  _ZN2Os11QueueStringC1EPKc                                                                                                                                                                                                                  
0009b5ac  _ZN2Os11QueueStringC1ERKN2Fw10StringBaseE                                                                                                                                                                                                  
0009b580  _ZN2Os11QueueStringC1ERKS0_                                                                                                                                                                                                                
0009b564  _ZN2Os11QueueStringC1Ev                                                                                                                                                                                                                    
0009b5ec  _ZN2Os11QueueStringC2EPKc                                                                                                                                                                                                                  
0009b5ac  _ZN2Os11QueueStringC2ERKN2Fw10StringBaseE                                                                                                                                                                                                  
0009b580  _ZN2Os11QueueStringC2ERKS0_                                                                                                                                                                                                                
0009b564  _ZN2Os11QueueStringC2Ev                                                                                                                                                                                                                    
0009b518  _ZN2Os11QueueStringD0Ev                                                                                                                                                                                                                    
0009b514  _ZN2Os11QueueStringD1Ev                                                                                                                                                                                                                    
0009b514  _ZN2Os11QueueStringD2Ev                                                                                                                                                                                                                    
0009b52c  _ZN2Os11QueueStringaSERKS0_                                                                                                                                                                                                                
0009d3e4  _ZN2Os12TaskRegistryC1Ev                                                                                                                                                                                                                   
0009d3e4  _ZN2Os12TaskRegistryC2Ev                                                                                                                                                                                                                   
0009d3dc  _ZN2Os12TaskRegistryD0Ev                                                                                                                                                                                                                   
0009d3d8  _ZN2Os12TaskRegistryD1Ev                                                                                                                                                                                                                   
0009d3d8  _ZN2Os12TaskRegistryD2Ev                                                                                                                                                                                                                   
0009ced4  _ZN2Os13IntervalTimer10getDiffRawERKNS0_7RawTimeES3_                                                                                                                                                                                       
0009ce68  _ZN2Os13IntervalTimer10getRawTimeERNS0_7RawTimeE                                                                                                                                                                                           
0009cea4  _ZN2Os13IntervalTimer11getDiffUsecERKNS0_7RawTimeES3_                                                                                                                                                                                      
0009cec4  _ZN2Os13IntervalTimer11getDiffUsecEv                                                                                                                                                                                                       
0009ce9c  _ZN2Os13IntervalTimer17getTimerFrequencyEv                                                                                                                                                                                                 
0009ce94  _ZN2Os13IntervalTimer4stopEv                                                                                                                                                                                                               
0009ce8c  _ZN2Os13IntervalTimer5startEv                                                                                                                                                                                                              
0009ce30  _ZN2Os13IntervalTimerC1Ev                                                                                                                                                                                                                  
0009ce30  _ZN2Os13IntervalTimerC2Ev                                                                                                                                                                                                                  
0009ce28  _ZN2Os13IntervalTimerD0Ev                                                                                                                                                                                                                  
0009ce24  _ZN2Os13IntervalTimerD1Ev                                                                                                                                                                                                                  
0009ce24  _ZN2Os13IntervalTimerD2Ev                                                                                                                                                                                                                  
0009e63c  _ZN2Os4File12getLastErrorEv                                                                                                                                                                                                                
0009e634  _ZN2Os4File14calculateCRC32ERj                                                                                                                                                                                                             
0009e62c  _ZN2Os4File18getLastErrorStringEv                                                                                                                                                                                                          
0009e608  _ZN2Os4File4openEPKcNS0_4ModeE                                                                                                                                                                                                             
0009e600  _ZN2Os4File4readEPvRib                                                                                                                                                                                                                     
0009e5f8  _ZN2Os4File4seekEib                                                                                                                                                                                                                        
0009e5f4  _ZN2Os4File5closeEv                                                                                                                                                                                                                        
0009e5ec  _ZN2Os4File5flushEv                                                                                                                                                                                                                        
0009e5e4  _ZN2Os4File5writeEPKvRib                                                                                                                                                                                                                   
0009e5d0  _ZN2Os4File8preallocEii                                                                                                                                                                                                                    
0009e5c8  _ZN2Os4File9bulkWriteEPKvRji                                                                                                                                                                                                               
0009e5bc  _ZN2Os4FileC1Ev                                                                                                                                                                                                                            
0009e5bc  _ZN2Os4FileC2Ev                                                                                                                                                                                                                            
0009e5b4  _ZN2Os4FileD0Ev                                                                                                                                                                                                                            
0009e5b0  _ZN2Os4FileD1Ev                                                                                                                                                                                                                            
0009e5b0  _ZN2Os4FileD2Ev                                                                                                                                                                                                                            
0802f234  _ZN2Os4Task10s_numTasksE                                                                                                                                                                                                                   
0009d3d0  _ZN2Os4Task10setStartedEb                                                                                                                                                                                                                  
0009d3c4  _ZN2Os4Task11getNumTasksEv                                                                                                                                                                                                                 
0009aff4  _ZN2Os4Task11isSuspendedEv                                                                                                                                                                                                                 
0009d3bc  _ZN2Os4Task12wasSuspendedEv                                                                                                                                                                                                                
0009d3b4  _ZN2Os4Task13getIdentifierEv                                                                                                                                                                                                               
0802f230  _ZN2Os4Task14s_taskRegistryE                                                                                                                                                                                                               
0009d394  _ZN2Os4Task20registerTaskRegistryEPNS_12TaskRegistryE                                                                                                                                                                                      
0009af90  _ZN2Os4Task4joinEPPv                                                                                                                                                                                                                       
0009af5c  _ZN2Os4Task5delayEj                                                                                                                                                                                                                        
0009ae80  _ZN2Os4Task5startERKN2Fw10StringBaseEiiiPFvPvES5_i                                                                                                                                                                                         
0009ae78  _ZN2Os4Task6resumeEv                                                                                                                                                                                                                       
0009ae70  _ZN2Os4Task7suspendEb                                                                                                                                                                                                                      
0009d38c  _ZN2Os4Task9isStartedEv                                                                                                                                                                                                                    
0009ae34  _ZN2Os4TaskC1Ev                                                                                                                                                                                                                            
0009ae34  _ZN2Os4TaskC2Ev                                                                                                                                                                                                                            
0009add8  _ZN2Os4TaskD0Ev                                                                                                                                                                                                                            
0009adec  _ZN2Os4TaskD1Ev                                                                                                                                                                                                                            
0009adec  _ZN2Os4TaskD2Ev                                                                                                                                                                                                                            
0009e4f0  _ZN2Os5Mutex4lockEv                                                                                                                                                                                                                        
0009e4d0  _ZN2Os5Mutex6unLockEv                                                                                                                                                                                                                      
0009e4ac  _ZN2Os5MutexC1Ev                                                                                                                                                                                                                           
0009e4ac  _ZN2Os5MutexC2Ev                                                                                                                                                                                                                           
0009e498  _ZN2Os5MutexD0Ev                                                                                                                                                                                                                           
0009e470  _ZN2Os5MutexD1Ev                                                                                                                                                                                                                           
0009e470  _ZN2Os5MutexD2Ev                                                                                                                                                                                                                           
0802f22c  _ZN2Os5Queue11s_numQueuesE                                                                                                                                                                                                                 
0009d768  _ZN2Os5Queue12getNumQueuesEv                                                                                                                                                                                                               
0802f228  _ZN2Os5Queue15s_queueRegistryE                                                                                                                                                                                                             
0009d75c  _ZN2Os5Queue16setQueueRegistryEPNS_13QueueRegistryE                                                                                                                                                                                        
0009a5ec  _ZN2Os5Queue4sendEPKhiiNS0_13QueueBlockingE                                                                                                                                                                                                
0009d710  _ZN2Os5Queue4sendERKN2Fw19SerializeBufferBaseEiNS0_13QueueBlockingE                                                                                                                                                                        
0009a550  _ZN2Os5Queue6createERKN2Fw10StringBaseEii                                                                                                                                                                                                  
0009d708  _ZN2Os5Queue7getNameEv                                                                                                                                                                                                                     
0009a4b8  _ZN2Os5Queue7receiveEPhiRiS2_NS0_13QueueBlockingE                                                                                                                                                                                          
0009d684  _ZN2Os5Queue7receiveERN2Fw19SerializeBufferBaseERiNS0_13QueueBlockingE                                                                                                                                                                     
0009a490  _ZN2Os5QueueC1Ev                                                                                                                                                                                                                           
0009a490  _ZN2Os5QueueC2Ev                                                                                                                                                                                                                           
0009a47c  _ZN2Os5QueueD0Ev                                                                                                                                                                                                                           
0009a43c  _ZN2Os5QueueD1Ev                                                                                                                                                                                                                           
0009a43c  _ZN2Os5QueueD2Ev                                                                                                                                                                                                                           
00097918  _ZN3Drv10DataBuffer11getBuffAddrEv                                                                                                                                                                                                         
000978d8  _ZN3Drv10DataBufferC1EPKhj                                                                                                                                                                                                                 
00097890  _ZN3Drv10DataBufferC1ERKS0_                                                                                                                                                                                                                
0009787c  _ZN3Drv10DataBufferC1Ev                                                                                                                                                                                                                    
000978d8  _ZN3Drv10DataBufferC2EPKhj                                                                                                                                                                                                                 
00097890  _ZN3Drv10DataBufferC2ERKS0_                                                                                                                                                                                                                
0009787c  _ZN3Drv10DataBufferC2Ev                                                                                                                                                                                                                    
00097868  _ZN3Drv10DataBufferD0Ev                                                                                                                                                                                                                    
00097864  _ZN3Drv10DataBufferD1Ev                                                                                                                                                                                                                    
00097864  _ZN3Drv10DataBufferD2Ev                                                                                                                                                                                                                    
00097828  _ZN3Drv10DataBufferaSERKS0_                                                                                                                                                                                                                
0009c15c  _ZN3Drv15BlockDriverImpl11s_driverISREPv                                                                                                                                                                                                   
0009c158  _ZN3Drv15BlockDriverImpl13Sched_handlerEij                                                                                                                                                                                                 
0009c148  _ZN3Drv15BlockDriverImpl14PingIn_handlerEij                                                                                                                                                                                                
0009c150  _ZN3Drv15BlockDriverImpl16BufferIn_handlerEiRNS_10DataBufferE                                                                                                                                                                              
0009c0fc  _ZN3Drv15BlockDriverImpl40InterruptReport_internalInterfaceHandlerEj                                                                                                                                                                       
0009c18c  _ZN3Drv15BlockDriverImpl4initEi                                                                                                                                                                                                            
0009c188  _ZN3Drv15BlockDriverImpl7callIsrEv                                                                                                                                                                                                         
0009c0e0  _ZN3Drv15BlockDriverImplC1EPKc                                                                                                                                                                                                             
0009c0e0  _ZN3Drv15BlockDriverImplC2EPKc                                                                                                                                                                                                             
0009c0cc  _ZN3Drv15BlockDriverImplD0Ev                                                                                                                                                                                                               
0009c0c8  _ZN3Drv15BlockDriverImplD1Ev                                                                                                                                                                                                               
0009c0c8  _ZN3Drv15BlockDriverImplD2Ev                                                                                                                                                                                                               
00088540  _ZN3Drv19InputDataBufferPort11addCallCompEPN2Fw20PassiveComponentBaseEPFvS3_iRNS_10DataBufferEE                                                                                                                                            
00087df8  _ZN3Drv19InputDataBufferPort12invokeSerialERN2Fw19SerializeBufferBaseE                                                                                                                                                                     
00087df4  _ZN3Drv19InputDataBufferPort4initEv                                                                                                                                                                                                        
00087e7c  _ZN3Drv19InputDataBufferPort6invokeERNS_10DataBufferE                                                                                                                                                                                      
00088524  _ZN3Drv19InputDataBufferPortC1Ev                                                                                                                                                                                                           
00088524  _ZN3Drv19InputDataBufferPortC2Ev                                                                                                                                                                                                           
000a29a0  _ZN3Drv19InputDataBufferPortD0Ev                                                                                                                                                                                                           
000a31cc  _ZN3Drv19InputDataBufferPortD1Ev                                                                                                                                                                                                           
000884f8  _ZN3Drv20OutputDataBufferPort11addCallPortEPNS_19InputDataBufferPortE                                                                                                                                                                      
00087df0  _ZN3Drv20OutputDataBufferPort4initEv                                                                                                                                                                                                       
00087f80  _ZN3Drv20OutputDataBufferPort6invokeERNS_10DataBufferE                                                                                                                                                                                     
00087dd4  _ZN3Drv20OutputDataBufferPortC1Ev                                                                                                                                                                                                          
00087dd4  _ZN3Drv20OutputDataBufferPortC2Ev                                                                                                                                                                                                          
000a29b4  _ZN3Drv20OutputDataBufferPortD0Ev                                                                                                                                                                                                          
000a31d0  _ZN3Drv20OutputDataBufferPortD1Ev                                                                                                                                                                                                          
00059550  _ZN3Drv24BlockDriverComponentBase10doDispatchEv                                                                                                                                                                                            
0005b194  _ZN3Drv24BlockDriverComponentBase11PingOut_outEij                                                                                                                                                                                          
0005b158  _ZN3Drv24BlockDriverComponentBase12CycleOut_outEiRN3Svc8TimerValE                                                                                                                                                                          
00059fc0  _ZN3Drv24BlockDriverComponentBase12m_p_Sched_inEPN2Fw20PassiveComponentBaseEij                                                                                                                                                             
0005b11c  _ZN3Drv24BlockDriverComponentBase13BufferOut_outEiRNS_10DataBufferE                                                                                                                                                                        
0005a570  _ZN3Drv24BlockDriverComponentBase13m_p_PingIn_inEPN2Fw20PassiveComponentBaseEij                                                                                                                                                            
00059060  _ZN3Drv24BlockDriverComponentBase15m_p_BufferIn_inEPN2Fw20PassiveComponentBaseEiRNS_10DataBufferE                                                                                                                                          
00059098  _ZN3Drv24BlockDriverComponentBase16Sched_preMsgHookEij                                                                                                                                                                                     
00059090  _ZN3Drv24BlockDriverComponentBase17PingIn_preMsgHookEij                                                                                                                                                                                    
00059a44  _ZN3Drv24BlockDriverComponentBase17Sched_handlerBaseEij                                                                                                                                                                                    
00059ff0  _ZN3Drv24BlockDriverComponentBase18PingIn_handlerBaseEij                                                                                                                                                                                   
0005b0dc  _ZN3Drv24BlockDriverComponentBase18set_Tlm_OutputPortEiPN2Fw12InputTlmPortE                                                                                                                                                                
0005abc8  _ZN3Drv24BlockDriverComponentBase18set_Tlm_OutputPortEiPN2Fw18InputSerializePortE                                                                                                                                                          
0005ab1c  _ZN3Drv24BlockDriverComponentBase18tlmWrite_BD_CyclesEj                                                                                                                                                                                    
00059094  _ZN3Drv24BlockDriverComponentBase19BufferIn_preMsgHookEiRNS_10DataBufferE                                                                                                                                                                  
0005aaf0  _ZN3Drv24BlockDriverComponentBase19get_Sched_InputPortEi                                                                                                                                                                                   
0005aab0  _ZN3Drv24BlockDriverComponentBase19set_Time_OutputPortEiPN2Fw13InputTimePortE                                                                                                                                                              
0005aa70  _ZN3Drv24BlockDriverComponentBase19set_Time_OutputPortEiPN2Fw18InputSerializePortE                                                                                                                                                         
0005a5a0  _ZN3Drv24BlockDriverComponentBase20BufferIn_handlerBaseEiRNS_10DataBufferE                                                                                                                                                                 
00059034  _ZN3Drv24BlockDriverComponentBase20get_PingIn_InputPortEi                                                                                                                                                                                  
00057ba8  _ZN3Drv24BlockDriverComponentBase22getNum_Tlm_OutputPortsEv                                                                                                                                                                                
00059008  _ZN3Drv24BlockDriverComponentBase22get_BufferIn_InputPortEi                                                                                                                                                                                
00058acc  _ZN3Drv24BlockDriverComponentBase22set_PingOut_OutputPortEiPN2Fw18InputSerializePortE                                                                                                                                                      
00058a8c  _ZN3Drv24BlockDriverComponentBase22set_PingOut_OutputPortEiPN3Svc13InputPingPortE                                                                                                                                                          
00057b78  _ZN3Drv24BlockDriverComponentBase23getNum_Sched_InputPortsEv                                                                                                                                                                               
00057bb0  _ZN3Drv24BlockDriverComponentBase23getNum_Time_OutputPortsEv                                                                                                                                                                               
00058a4c  _ZN3Drv24BlockDriverComponentBase23set_CycleOut_OutputPortEiPN2Fw18InputSerializePortE                                                                                                                                                     
00058a08  _ZN3Drv24BlockDriverComponentBase23set_CycleOut_OutputPortEiPN3Svc14InputCyclePortE                                                                                                                                                        
00057b88  _ZN3Drv24BlockDriverComponentBase24getNum_PingIn_InputPortsEv                                                                                                                                                                              
000589c0  _ZN3Drv24BlockDriverComponentBase24set_BufferOut_OutputPortEiPN2Fw18InputSerializePortE                                                                                                                                                    
00058530  _ZN3Drv24BlockDriverComponentBase24set_BufferOut_OutputPortEiPNS_19InputDataBufferPortE                                                                                                                                                    
00057b80  _ZN3Drv24BlockDriverComponentBase26getNum_BufferIn_InputPortsEv                                                                                                                                                                            
00057ba0  _ZN3Drv24BlockDriverComponentBase26getNum_PingOut_OutputPortsEv                                                                                                                                                                            
000584f0  _ZN3Drv24BlockDriverComponentBase26isConnected_Tlm_OutputPortEi                                                                                                                                                                            
00057b90  _ZN3Drv24BlockDriverComponentBase27getNum_CycleOut_OutputPortsEv                                                                                                                                                                           
000584b8  _ZN3Drv24BlockDriverComponentBase27isConnected_Time_OutputPortEi                                                                                                                                                                           
00057b98  _ZN3Drv24BlockDriverComponentBase28getNum_BufferOut_OutputPortsEv                                                                                                                                                                          
00058480  _ZN3Drv24BlockDriverComponentBase30isConnected_PingOut_OutputPortEi                                                                                                                                                                        
0005844c  _ZN3Drv24BlockDriverComponentBase31isConnected_CycleOut_OutputPortEi                                                                                                                                                                       
00058418  _ZN3Drv24BlockDriverComponentBase32isConnected_BufferOut_OutputPortEi                                                                                                                                                                      
00057ddc  _ZN3Drv24BlockDriverComponentBase39InterruptReport_internalInterfaceInvokeEj                                                                                                                                                               
00057bb8  _ZN3Drv24BlockDriverComponentBase4initEii                                                                                                                                                                                                  
00057b0c  _ZN3Drv24BlockDriverComponentBase7getTimeEv                                                                                                                                                                                                
00057a20  _ZN3Drv24BlockDriverComponentBaseC1EPKc                                                                                                                                                                                                    
00057a20  _ZN3Drv24BlockDriverComponentBaseC2EPKc                                                                                                                                                                                                    
00057a0c  _ZN3Drv24BlockDriverComponentBaseD0Ev                                                                                                                                                                                                      
0005794c  _ZN3Drv24BlockDriverComponentBaseD1Ev                                                                                                                                                                                                      
0005794c  _ZN3Drv24BlockDriverComponentBaseD2Ev                                                                                                                                                                                                      
000a2fa8  _ZN3Drv44_GLOBAL__N__20_DataBufferPortAc_cpp_def37a2520DataBufferPortBuffer11getBuffAddrEv                                                                                                                                                 
000a29c8  _ZN3Drv44_GLOBAL__N__20_DataBufferPortAc_cpp_def37a2520DataBufferPortBufferD0Ev                                                                                                                                                            
000a31d4  _ZN3Drv44_GLOBAL__N__20_DataBufferPortAc_cpp_def37a2520DataBufferPortBufferD1Ev                                                                                                                                                            
000a2fb0  _ZN3Drv50_GLOBAL__N__26_BlockDriverComponentAc_cpp_ac3b9f6530ComponentIpcSerializableBuffer11getBuffAddrEv                                                                                                                                 
000a29dc  _ZN3Drv50_GLOBAL__N__26_BlockDriverComponentAc_cpp_ac3b9f6530ComponentIpcSerializableBufferD0Ev                                                                                                                                            
000a31d8  _ZN3Drv50_GLOBAL__N__26_BlockDriverComponentAc_cpp_ac3b9f6530ComponentIpcSerializableBufferD1Ev                                                                                                                                            
0009b6ac  _ZN3Svc11TlmChanImpl11Run_handlerEij                                                                                                                                                                                                       
0009e804  _ZN3Svc11TlmChanImpl14TlmGet_handlerEitRN2Fw4TimeERNS1_9TlmBufferE                                                                                                                                                                         
0009c0b4  _ZN3Svc11TlmChanImpl14pingIn_handlerEij                                                                                                                                                                                                    
000966f8  _ZN3Svc11TlmChanImpl15TlmRecv_handlerEitRN2Fw4TimeERNS1_9TlmBufferE                                                                                                                                                                        
0009c0b0  _ZN3Svc11TlmChanImpl4initEii                                                                                                                                                                                                               
000a06c8  _ZN3Svc11TlmChanImpl6TlmSetC1Ev                                                                                                                                                                                                            
000a0998  _ZN3Svc11TlmChanImpl6TlmSetD1Ev                                                                                                                                                                                                            
0009c08c  _ZN3Svc11TlmChanImpl6doHashEt                                                                                                                                                                                                              
000a0e28  _ZN3Svc11TlmChanImpl8tlmEntryC1Ev                                                                                                                                                                                                          
000a0e48  _ZN3Svc11TlmChanImpl8tlmEntryD1Ev                                                                                                                                                                                                          
0009bfa0  _ZN3Svc11TlmChanImplC1EPKc                                                                                                                                                                                                                 
0009bfa0  _ZN3Svc11TlmChanImplC2EPKc                                                                                                                                                                                                                 
0009bf8c  _ZN3Svc11TlmChanImplD0Ev                                                                                                                                                                                                                   
0009bf4c  _ZN3Svc11TlmChanImplD1Ev                                                                                                                                                                                                                   
0009bf4c  _ZN3Svc11TlmChanImplD2Ev                                                                                                                                                                                                                   
0008e4d4  _ZN3Svc13InputPingPort11addCallCompEPN2Fw20PassiveComponentBaseEPFvS3_ijE                                                                                                                                                                  
0008ddf8  _ZN3Svc13InputPingPort12invokeSerialERN2Fw19SerializeBufferBaseE                                                                                                                                                                           
0008ddf4  _ZN3Svc13InputPingPort4initEv                                                                                                                                                                                                              
0008de60  _ZN3Svc13InputPingPort6invokeEj                                                                                                                                                                                                            
0008e4b8  _ZN3Svc13InputPingPortC1Ev                                                                                                                                                                                                                 
0008e4b8  _ZN3Svc13InputPingPortC2Ev                                                                                                                                                                                                                 
000a151c  _ZN3Svc13InputPingPortD0Ev                                                                                                                                                                                                                 
000a29f0  _ZN3Svc13InputPingPortD1Ev                                                                                                                                                                                                                 
0008ba08  _ZN3Svc14InputCyclePort11addCallCompEPN2Fw20PassiveComponentBaseEPFvS3_iRNS_8TimerValEE                                                                                                                                                    
0008b308  _ZN3Svc14InputCyclePort12invokeSerialERN2Fw19SerializeBufferBaseE                                                                                                                                                                          
0008b304  _ZN3Svc14InputCyclePort4initEv                                                                                                                                                                                                             
0008b384  _ZN3Svc14InputCyclePort6invokeERNS_8TimerValE                                                                                                                                                                                              
0008b9ec  _ZN3Svc14InputCyclePortC1Ev                                                                                                                                                                                                                
0008b9ec  _ZN3Svc14InputCyclePortC2Ev                                                                                                                                                                                                                
000a2a04  _ZN3Svc14InputCyclePortD0Ev                                                                                                                                                                                                                
000a31dc  _ZN3Svc14InputCyclePortD1Ev                                                                                                                                                                                                                
0008cb44  _ZN3Svc14InputSchedPort11addCallCompEPN2Fw20PassiveComponentBaseEPFvS3_ijE                                                                                                                                                                 
0008c454  _ZN3Svc14InputSchedPort12invokeSerialERN2Fw19SerializeBufferBaseE                                                                                                                                                                          
0008c450  _ZN3Svc14InputSchedPort4initEv                                                                                                                                                                                                             
0008c4bc  _ZN3Svc14InputSchedPort6invokeEj                                                                                                                                                                                                           
0008cb28  _ZN3Svc14InputSchedPortC1Ev                                                                                                                                                                                                                
0008cb28  _ZN3Svc14InputSchedPortC2Ev                                                                                                                                                                                                                
000a1538  _ZN3Svc14InputSchedPortD0Ev                                                                                                                                                                                                                
000a2a18  _ZN3Svc14InputSchedPortD1Ev                                                                                                                                                                                                                
0008e008  _ZN3Svc14OutputPingPort11addCallPortEPNS_13InputPingPortE                                                                                                                                                                                  
0008ddf0  _ZN3Svc14OutputPingPort4initEv                                                                                                                                                                                                             
0008df5c  _ZN3Svc14OutputPingPort6invokeEj                                                                                                                                                                                                           
0008ddd4  _ZN3Svc14OutputPingPortC1Ev                                                                                                                                                                                                                
0008ddd4  _ZN3Svc14OutputPingPortC2Ev                                                                                                                                                                                                                
000a1554  _ZN3Svc14OutputPingPortD0Ev                                                                                                                                                                                                                
000a2a2c  _ZN3Svc14OutputPingPortD1Ev                                                                                                                                                                                                                
0008b9c0  _ZN3Svc15OutputCyclePort11addCallPortEPNS_14InputCyclePortE                                                                                                                                                                                
0008b300  _ZN3Svc15OutputCyclePort4initEv                                                                                                                                                                                                            
0008b480  _ZN3Svc15OutputCyclePort6invokeERNS_8TimerValE                                                                                                                                                                                             
0008b2e4  _ZN3Svc15OutputCyclePortC1Ev                                                                                                                                                                                                               
0008b2e4  _ZN3Svc15OutputCyclePortC2Ev                                                                                                                                                                                                               
000a2a40  _ZN3Svc15OutputCyclePortD0Ev                                                                                                                                                                                                               
000a31e0  _ZN3Svc15OutputCyclePortD1Ev                                                                                                                                                                                                               
0008cafc  _ZN3Svc15OutputSchedPort11addCallPortEPNS_14InputSchedPortE                                                                                                                                                                                
0008c44c  _ZN3Svc15OutputSchedPort4initEv                                                                                                                                                                                                            
0008c5b8  _ZN3Svc15OutputSchedPort6invokeEj                                                                                                                                                                                                          
0008c430  _ZN3Svc15OutputSchedPortC1Ev                                                                                                                                                                                                               
0008c430  _ZN3Svc15OutputSchedPortC2Ev                                                                                                                                                                                                               
000a2a54  _ZN3Svc15OutputSchedPortD0Ev                                                                                                                                                                                                               
000a31e4  _ZN3Svc15OutputSchedPortD1Ev                                                                                                                                                                                                               
00075434  _ZN3Svc16ActiveLoggerImpl14pingIn_handlerEij                                                                                                                                                                                               
000755a0  _ZN3Svc16ActiveLoggerImpl15LogRecv_handlerEitRN2Fw4TimeENS1_11LogSeverityERNS1_9LogBufferE                                                                                                                                                 
00075324  _ZN3Svc16ActiveLoggerImpl29ALOG_SET_ID_FILTER_cmdHandlerEtjjNS_25ActiveLoggerComponentBase15IdFilterEnabledE                                                                                                                               
00075824  _ZN3Svc16ActiveLoggerImpl30ALOG_DUMP_EVENT_LOG_cmdHandlerEtjRKN2Fw12CmdStringArgE                                                                                                                                                          
0007528c  _ZN3Svc16ActiveLoggerImpl33ALOG_DUMP_FILTER_STATE_cmdHandlerEtj                                                                                                                                                                            
00074ff0  _ZN3Svc16ActiveLoggerImpl33loqQueue_internalInterfaceHandlerEtRN2Fw4TimeENS_25ActiveLoggerComponentBase16QueueLogSeverityERNS1_9LogBufferE                                                                                                 
00074fc8  _ZN3Svc16ActiveLoggerImpl37ALOG_SET_EVENT_SEND_FILTER_cmdHandlerEtjNS_25ActiveLoggerComponentBase15SendFilterLevelENS1_17SendFilterEnabledE                                                                                                
00074fa0  _ZN3Svc16ActiveLoggerImpl39ALOG_SET_EVENT_REPORT_FILTER_cmdHandlerEtjNS_25ActiveLoggerComponentBase16InputFilterLevelENS1_18InputFilterEnabledE                                                                                            
00074f9c  _ZN3Svc16ActiveLoggerImpl4initEii                                                                                                                                                                                                          
00074e1c  _ZN3Svc16ActiveLoggerImplC1EPKc                                                                                                                                                                                                            
00074e1c  _ZN3Svc16ActiveLoggerImplC2EPKc                                                                                                                                                                                                            
00074e08  _ZN3Svc16ActiveLoggerImplD0Ev                                                                                                                                                                                                              
00074d30  _ZN3Svc16ActiveLoggerImplD1Ev                                                                                                                                                                                                              
00074d30  _ZN3Svc16ActiveLoggerImplD2Ev                                                                                                                                                                                                              
0009ef24  _ZN3Svc17CubeRoverTimeImpl19timeGetPort_handlerEiRN2Fw4TimeE                                                                                                                                                                               
0009ef20  _ZN3Svc17CubeRoverTimeImpl4initEi                                                                                                                                                                                                          
0009ef0c  _ZN3Svc17CubeRoverTimeImplC1EPKc                                                                                                                                                                                                           
0009ef0c  _ZN3Svc17CubeRoverTimeImplC2EPKc                                                                                                                                                                                                           
0009eef8  _ZN3Svc17CubeRoverTimeImplD0Ev                                                                                                                                                                                                             
0009eef4  _ZN3Svc17CubeRoverTimeImplD1Ev                                                                                                                                                                                                             
0009eef4  _ZN3Svc17CubeRoverTimeImplD2Ev                                                                                                                                                                                                             
00089fcc  _ZN3Svc17InputWatchDogPort11addCallCompEPN2Fw20PassiveComponentBaseEPFvS3_ijE                                                                                                                                                              
000898b0  _ZN3Svc17InputWatchDogPort12invokeSerialERN2Fw19SerializeBufferBaseE                                                                                                                                                                       
000898ac  _ZN3Svc17InputWatchDogPort4initEv                                                                                                                                                                                                          
00089918  _ZN3Svc17InputWatchDogPort6invokeEj                                                                                                                                                                                                        
00089fb0  _ZN3Svc17InputWatchDogPortC1Ev                                                                                                                                                                                                             
00089fb0  _ZN3Svc17InputWatchDogPortC2Ev                                                                                                                                                                                                             
000a1570  _ZN3Svc17InputWatchDogPortD0Ev                                                                                                                                                                                                             
000a2a68  _ZN3Svc17InputWatchDogPortD1Ev                                                                                                                                                                                                             
00096428  _ZN3Svc17TimeComponentBase18m_p_timeGetPort_inEPN2Fw20PassiveComponentBaseEiRNS1_4TimeE                                                                                                                                                    
00096458  _ZN3Svc17TimeComponentBase23timeGetPort_handlerBaseEiRN2Fw4TimeE                                                                                                                                                                           
000963fc  _ZN3Svc17TimeComponentBase25get_timeGetPort_InputPortEi                                                                                                                                                                                    
0009638c  _ZN3Svc17TimeComponentBase29getNum_timeGetPort_InputPortsEv                                                                                                                                                                                
00096394  _ZN3Svc17TimeComponentBase4initEi                                                                                                                                                                                                          
00096354  _ZN3Svc17TimeComponentBaseC1EPKc                                                                                                                                                                                                           
00096354  _ZN3Svc17TimeComponentBaseC2EPKc                                                                                                                                                                                                           
00096340  _ZN3Svc17TimeComponentBaseD0Ev                                                                                                                                                                                                             
00096318  _ZN3Svc17TimeComponentBaseD1Ev                                                                                                                                                                                                             
00096318  _ZN3Svc17TimeComponentBaseD2Ev                                                                                                                                                                                                             
00089f84  _ZN3Svc18OutputWatchDogPort11addCallPortEPNS_17InputWatchDogPortE                                                                                                                                                                          
000898a8  _ZN3Svc18OutputWatchDogPort4initEv                                                                                                                                                                                                         
00089a1c  _ZN3Svc18OutputWatchDogPort6invokeEj                                                                                                                                                                                                       
0008988c  _ZN3Svc18OutputWatchDogPortC1Ev                                                                                                                                                                                                            
0008988c  _ZN3Svc18OutputWatchDogPortC2Ev                                                                                                                                                                                                            
000a2a7c  _ZN3Svc18OutputWatchDogPortD0Ev                                                                                                                                                                                                            
000a31e8  _ZN3Svc18OutputWatchDogPortD1Ev                                                                                                                                                                                                            
00094340  _ZN3Svc19ActiveRateGroupImpl14PingIn_handlerEij                                                                                                                                                                                            
00094240  _ZN3Svc19ActiveRateGroupImpl15CycleIn_handlerEiRNS_8TimerValE                                                                                                                                                                              
00094234  _ZN3Svc19ActiveRateGroupImpl18CycleIn_preMsgHookEiRNS_8TimerValE                                                                                                                                                                           
00094230  _ZN3Svc19ActiveRateGroupImpl4initEii                                                                                                                                                                                                       
0009422c  _ZN3Svc19ActiveRateGroupImpl8preambleEv                                                                                                                                                                                                    
0009418c  _ZN3Svc19ActiveRateGroupImplC1EPKcPjj                                                                                                                                                                                                      
0009418c  _ZN3Svc19ActiveRateGroupImplC2EPKcPjj                                                                                                                                                                                                      
00094178  _ZN3Svc19ActiveRateGroupImplD0Ev                                                                                                                                                                                                           
00094174  _ZN3Svc19ActiveRateGroupImplD1Ev                                                                                                                                                                                                           
00094174  _ZN3Svc19ActiveRateGroupImplD2Ev                                                                                                                                                                                                           
0008a890  _ZN3Svc19InputFatalEventPort11addCallCompEPN2Fw20PassiveComponentBaseEPFvS3_itE                                                                                                                                                            
0008a180  _ZN3Svc19InputFatalEventPort12invokeSerialERN2Fw19SerializeBufferBaseE                                                                                                                                                                     
0008a17c  _ZN3Svc19InputFatalEventPort4initEv                                                                                                                                                                                                        
0008a1e8  _ZN3Svc19InputFatalEventPort6invokeEt                                                                                                                                                                                                      
0008a874  _ZN3Svc19InputFatalEventPortC1Ev                                                                                                                                                                                                           
0008a874  _ZN3Svc19InputFatalEventPortC2Ev                                                                                                                                                                                                           
000a2a90  _ZN3Svc19InputFatalEventPortD0Ev                                                                                                                                                                                                           
000a31ec  _ZN3Svc19InputFatalEventPortD1Ev                                                                                                                                                                                                           
000953e8  _ZN3Svc19RateGroupDriverImpl15CycleIn_handlerEiRNS_8TimerValE                                                                                                                                                                              
000953e0  _ZN3Svc19RateGroupDriverImpl4initEv                                                                                                                                                                                                        
00095334  _ZN3Svc19RateGroupDriverImplC1EPKcPii                                                                                                                                                                                                      
00095334  _ZN3Svc19RateGroupDriverImplC2EPKcPii                                                                                                                                                                                                      
00095320  _ZN3Svc19RateGroupDriverImplD0Ev                                                                                                                                                                                                           
0009531c  _ZN3Svc19RateGroupDriverImplD1Ev                                                                                                                                                                                                           
0009531c  _ZN3Svc19RateGroupDriverImplD2Ev                                                                                                                                                                                                           
0008a848  _ZN3Svc20OutputFatalEventPort11addCallPortEPNS_19InputFatalEventPortE                                                                                                                                                                      
0008a178  _ZN3Svc20OutputFatalEventPort4initEv                                                                                                                                                                                                       
0008a2e8  _ZN3Svc20OutputFatalEventPort6invokeEt                                                                                                                                                                                                     
0008a15c  _ZN3Svc20OutputFatalEventPortC1Ev                                                                                                                                                                                                          
0008a15c  _ZN3Svc20OutputFatalEventPortC2Ev                                                                                                                                                                                                          
000a2aa4  _ZN3Svc20OutputFatalEventPortD0Ev                                                                                                                                                                                                          
000a31f0  _ZN3Svc20OutputFatalEventPortD1Ev                                                                                                                                                                                                          
0006b1c0  _ZN3Svc20TlmChanComponentBase10doDispatchEv                                                                                                                                                                                                
0006be28  _ZN3Svc20TlmChanComponentBase10m_p_Run_inEPN2Fw20PassiveComponentBaseEij                                                                                                                                                                   
0006c57c  _ZN3Svc20TlmChanComponentBase11PktSend_outEiRN2Fw9ComBufferEj                                                                                                                                                                              
0006c540  _ZN3Svc20TlmChanComponentBase11pingOut_outEij                                                                                                                                                                                              
0006b7f4  _ZN3Svc20TlmChanComponentBase13m_p_TlmGet_inEPN2Fw20PassiveComponentBaseEitRNS1_4TimeERNS1_9TlmBufferE                                                                                                                                     
0006bf38  _ZN3Svc20TlmChanComponentBase13m_p_pingIn_inEPN2Fw20PassiveComponentBaseEij                                                                                                                                                                
0006b180  _ZN3Svc20TlmChanComponentBase14Run_preMsgHookEij                                                                                                                                                                                           
0006b13c  _ZN3Svc20TlmChanComponentBase14m_p_TlmRecv_inEPN2Fw20PassiveComponentBaseEitRNS1_4TimeERNS1_9TlmBufferE                                                                                                                                    
0006b834  _ZN3Svc20TlmChanComponentBase15Run_handlerBaseEij                                                                                                                                                                                          
0006c514  _ZN3Svc20TlmChanComponentBase17get_Run_InputPortEi                                                                                                                                                                                         
0006b17c  _ZN3Svc20TlmChanComponentBase17pingIn_preMsgHookEij                                                                                                                                                                                        
0006b788  _ZN3Svc20TlmChanComponentBase18TlmGet_handlerBaseEitRN2Fw4TimeERNS1_9TlmBufferE                                                                                                                                                            
0006be5c  _ZN3Svc20TlmChanComponentBase18pingIn_handlerBaseEij                                                                                                                                                                                       
0006c4a8  _ZN3Svc20TlmChanComponentBase19TlmRecv_handlerBaseEitRN2Fw4TimeERNS1_9TlmBufferE                                                                                                                                                           
0006ac70  _ZN3Svc20TlmChanComponentBase20get_TlmGet_InputPortEi                                                                                                                                                                                      
0006ac44  _ZN3Svc20TlmChanComponentBase20get_pingIn_InputPortEi                                                                                                                                                                                      
0006a444  _ZN3Svc20TlmChanComponentBase21getNum_Run_InputPortsEv                                                                                                                                                                                     
0006ac18  _ZN3Svc20TlmChanComponentBase21get_TlmRecv_InputPortEi                                                                                                                                                                                     
0006abdc  _ZN3Svc20TlmChanComponentBase22set_PktSend_OutputPortEiPN2Fw12InputComPortE                                                                                                                                                                
0006aba0  _ZN3Svc20TlmChanComponentBase22set_PktSend_OutputPortEiPN2Fw18InputSerializePortE                                                                                                                                                          
0006a6dc  _ZN3Svc20TlmChanComponentBase22set_pingOut_OutputPortEiPN2Fw18InputSerializePortE                                                                                                                                                          
0006a6a0  _ZN3Svc20TlmChanComponentBase22set_pingOut_OutputPortEiPNS_13InputPingPortE                                                                                                                                                                
0006a43c  _ZN3Svc20TlmChanComponentBase24getNum_TlmGet_InputPortsEv                                                                                                                                                                                  
0006a44c  _ZN3Svc20TlmChanComponentBase24getNum_pingIn_InputPortsEv                                                                                                                                                                                  
0006a434  _ZN3Svc20TlmChanComponentBase25getNum_TlmRecv_InputPortsEv                                                                                                                                                                                 
0006a454  _ZN3Svc20TlmChanComponentBase26getNum_PktSend_OutputPortsEv                                                                                                                                                                                
0006a45c  _ZN3Svc20TlmChanComponentBase26getNum_pingOut_OutputPortsEv                                                                                                                                                                                
0006a66c  _ZN3Svc20TlmChanComponentBase30isConnected_PktSend_OutputPortEi                                                                                                                                                                            
0006a638  _ZN3Svc20TlmChanComponentBase30isConnected_pingOut_OutputPortEi                                                                                                                                                                            
0006a464  _ZN3Svc20TlmChanComponentBase4initEii                                                                                                                                                                                                      
0006a428  _ZN3Svc20TlmChanComponentBase4lockEv                                                                                                                                                                                                       
0006a41c  _ZN3Svc20TlmChanComponentBase6unLockEv                                                                                                                                                                                                     
0006a35c  _ZN3Svc20TlmChanComponentBaseC1EPKc                                                                                                                                                                                                        
0006a35c  _ZN3Svc20TlmChanComponentBaseC2EPKc                                                                                                                                                                                                        
0006a348  _ZN3Svc20TlmChanComponentBaseD0Ev                                                                                                                                                                                                          
0006a2ac  _ZN3Svc20TlmChanComponentBaseD1Ev                                                                                                                                                                                                          
0006a2ac  _ZN3Svc20TlmChanComponentBaseD2Ev                                                                                                                                                                                                          
00080364  _ZN3Svc21CommandDispatcherImpl14pingIn_handlerEij                                                                                                                                                                                          
00080860  _ZN3Svc21CommandDispatcherImpl18compCmdReg_handlerEit                                                                                                                                                                                      
0008036c  _ZN3Svc21CommandDispatcherImpl18seqCmdBuff_handlerEiRN2Fw9ComBufferEj                                                                                                                                                                      
0008063c  _ZN3Svc21CommandDispatcherImpl19compCmdStat_handlerEitjN2Fw15CommandResponseE                                                                                                                                                              
00080318  _ZN3Svc21CommandDispatcherImpl20CMD_NO_OP_cmdHandlerEtj                                                                                                                                                                                    
000802e4  _ZN3Svc21CommandDispatcherImpl25CMD_TEST_CMD_1_cmdHandlerEtjifh                                                                                                                                                                            
0008090c  _ZN3Svc21CommandDispatcherImpl27CMD_NO_OP_STRING_cmdHandlerEtjRKN2Fw12CmdStringArgE                                                                                                                                                        
000802bc  _ZN3Svc21CommandDispatcherImpl29CMD_CLEAR_TRACKING_cmdHandlerEtj                                                                                                                                                                           
000802b4  _ZN3Svc21CommandDispatcherImpl4initEii                                                                                                                                                                                                     
00080254  _ZN3Svc21CommandDispatcherImplC1EPKc                                                                                                                                                                                                       
00080254  _ZN3Svc21CommandDispatcherImplC2EPKc                                                                                                                                                                                                       
00080240  _ZN3Svc21CommandDispatcherImplD0Ev                                                                                                                                                                                                         
0008023c  _ZN3Svc21CommandDispatcherImplD1Ev                                                                                                                                                                                                         
0008023c  _ZN3Svc21CommandDispatcherImplD2Ev                                                                                                                                                                                                         
00033354  _ZN3Svc25ActiveLoggerComponentBase10doDispatchEv                                                                                                                                                                                           
000398bc  _ZN3Svc25ActiveLoggerComponentBase11PktSend_outEiRN2Fw9ComBufferEj                                                                                                                                                                         
0003987c  _ZN3Svc25ActiveLoggerComponentBase11pingOut_outEij                                                                                                                                                                                         
000397dc  _ZN3Svc25ActiveLoggerComponentBase11regCommandsEv                                                                                                                                                                                          
00034b20  _ZN3Svc25ActiveLoggerComponentBase13m_p_pingIn_inEPN2Fw20PassiveComponentBaseEij                                                                                                                                                           
00035d5c  _ZN3Svc25ActiveLoggerComponentBase14m_p_CmdDisp_inEPN2Fw20PassiveComponentBaseEitjRNS1_12CmdArgBufferE                                                                                                                                     
000343c8  _ZN3Svc25ActiveLoggerComponentBase14m_p_LogRecv_inEPN2Fw20PassiveComponentBaseEitRNS1_4TimeENS1_11LogSeverityERNS1_9LogBufferE                                                                                                             
00032c94  _ZN3Svc25ActiveLoggerComponentBase15cmdResponse_outEtjN2Fw15CommandResponseE                                                                                                                                                               
00039374  _ZN3Svc25ActiveLoggerComponentBase17FatalAnnounce_outEit                                                                                                                                                                                   
00032ce8  _ZN3Svc25ActiveLoggerComponentBase17pingIn_preMsgHookEij                                                                                                                                                                                   
000345a0  _ZN3Svc25ActiveLoggerComponentBase18pingIn_handlerBaseEij                                                                                                                                                                                  
00039334  _ZN3Svc25ActiveLoggerComponentBase18set_Log_OutputPortEiPN2Fw12InputLogPortE                                                                                                                                                               
000392f4  _ZN3Svc25ActiveLoggerComponentBase18set_Log_OutputPortEiPN2Fw18InputSerializePortE                                                                                                                                                         
00034374  _ZN3Svc25ActiveLoggerComponentBase19LogRecv_handlerBaseEitRN2Fw4TimeENS1_11LogSeverityERNS1_9LogBufferE                                                                                                                                    
000392b4  _ZN3Svc25ActiveLoggerComponentBase19set_Time_OutputPortEiPN2Fw13InputTimePortE                                                                                                                                                             
00039274  _ZN3Svc25ActiveLoggerComponentBase19set_Time_OutputPortEiPN2Fw18InputSerializePortE                                                                                                                                                        
00039248  _ZN3Svc25ActiveLoggerComponentBase20get_pingIn_InputPortEi                                                                                                                                                                                 
00038d20  _ZN3Svc25ActiveLoggerComponentBase21get_CmdDisp_InputPortEi                                                                                                                                                                                
00038cf4  _ZN3Svc25ActiveLoggerComponentBase21get_LogRecv_InputPortEi                                                                                                                                                                                
00038cb4  _ZN3Svc25ActiveLoggerComponentBase21set_CmdReg_OutputPortEiPN2Fw15InputCmdRegPortE                                                                                                                                                         
00038c74  _ZN3Svc25ActiveLoggerComponentBase21set_CmdReg_OutputPortEiPN2Fw18InputSerializePortE                                                                                                                                                      
000329c4  _ZN3Svc25ActiveLoggerComponentBase22getNum_Log_OutputPortsEv                                                                                                                                                                               
00038c34  _ZN3Svc25ActiveLoggerComponentBase22set_LogText_OutputPortEiPN2Fw16InputLogTextPortE                                                                                                                                                       
00038bf4  _ZN3Svc25ActiveLoggerComponentBase22set_LogText_OutputPortEiPN2Fw18InputSerializePortE                                                                                                                                                     
000386a8  _ZN3Svc25ActiveLoggerComponentBase22set_PktSend_OutputPortEiPN2Fw12InputComPortE                                                                                                                                                           
0003866c  _ZN3Svc25ActiveLoggerComponentBase22set_PktSend_OutputPortEiPN2Fw18InputSerializePortE                                                                                                                                                     
0003862c  _ZN3Svc25ActiveLoggerComponentBase22set_pingOut_OutputPortEiPN2Fw18InputSerializePortE                                                                                                                                                     
000385ec  _ZN3Svc25ActiveLoggerComponentBase22set_pingOut_OutputPortEiPNS_13InputPingPortE                                                                                                                                                           
000329bc  _ZN3Svc25ActiveLoggerComponentBase23getNum_Time_OutputPortsEv                                                                                                                                                                              
00032984  _ZN3Svc25ActiveLoggerComponentBase24getNum_pingIn_InputPortsEv                                                                                                                                                                             
000385a8  _ZN3Svc25ActiveLoggerComponentBase24set_CmdStatus_OutputPortEiPN2Fw18InputSerializePortE                                                                                                                                                   
00038568  _ZN3Svc25ActiveLoggerComponentBase24set_CmdStatus_OutputPortEiPN2Fw20InputCmdResponsePortE                                                                                                                                                 
0003298c  _ZN3Svc25ActiveLoggerComponentBase25getNum_CmdDisp_InputPortsEv                                                                                                                                                                            
000329b4  _ZN3Svc25ActiveLoggerComponentBase25getNum_CmdReg_OutputPortsEv                                                                                                                                                                            
0003297c  _ZN3Svc25ActiveLoggerComponentBase25getNum_LogRecv_InputPortsEv                                                                                                                                                                            
000329cc  _ZN3Svc25ActiveLoggerComponentBase26getNum_LogText_OutputPortsEv                                                                                                                                                                           
00032994  _ZN3Svc25ActiveLoggerComponentBase26getNum_PktSend_OutputPortsEv                                                                                                                                                                           
000329a4  _ZN3Svc25ActiveLoggerComponentBase26getNum_pingOut_OutputPortsEv                                                                                                                                                                           
00038024  _ZN3Svc25ActiveLoggerComponentBase26isConnected_Log_OutputPortEi                                                                                                                                                                           
00037fec  _ZN3Svc25ActiveLoggerComponentBase27isConnected_Time_OutputPortEi                                                                                                                                                                          
000329ac  _ZN3Svc25ActiveLoggerComponentBase28getNum_CmdStatus_OutputPortsEv                                                                                                                                                                         
00037fb0  _ZN3Svc25ActiveLoggerComponentBase28set_FatalAnnounce_OutputPortEiPN2Fw18InputSerializePortE                                                                                                                                               
00037f74  _ZN3Svc25ActiveLoggerComponentBase28set_FatalAnnounce_OutputPortEiPNS_19InputFatalEventPortE                                                                                                                                               
00032ce0  _ZN3Svc25ActiveLoggerComponentBase29ALOG_SET_ID_FILTER_preMsgHookEtj                                                                                                                                                                       
00037f3c  _ZN3Svc25ActiveLoggerComponentBase29isConnected_CmdReg_OutputPortEi                                                                                                                                                                        
00032ce4  _ZN3Svc25ActiveLoggerComponentBase30ALOG_DUMP_EVENT_LOG_preMsgHookEtj                                                                                                                                                                      
00037f04  _ZN3Svc25ActiveLoggerComponentBase30isConnected_LogText_OutputPortEi                                                                                                                                                                       
000379e0  _ZN3Svc25ActiveLoggerComponentBase30isConnected_PktSend_OutputPortEi                                                                                                                                                                       
000379a8  _ZN3Svc25ActiveLoggerComponentBase30isConnected_pingOut_OutputPortEi                                                                                                                                                                       
0003299c  _ZN3Svc25ActiveLoggerComponentBase32getNum_FatalAnnounce_OutputPortsEv                                                                                                                                                                     
00037970  _ZN3Svc25ActiveLoggerComponentBase32isConnected_CmdStatus_OutputPortEi                                                                                                                                                                     
00037784  _ZN3Svc25ActiveLoggerComponentBase32loqQueue_internalInterfaceInvokeEtRN2Fw4TimeENS0_16QueueLogSeverityERNS1_9LogBufferE                                                                                                                   
00032cdc  _ZN3Svc25ActiveLoggerComponentBase33ALOG_DUMP_FILTER_STATE_preMsgHookEtj                                                                                                                                                                   
00035424  _ZN3Svc25ActiveLoggerComponentBase33ALOG_SET_ID_FILTER_cmdHandlerBaseEtjRN2Fw12CmdArgBufferE                                                                                                                                               
000356b4  _ZN3Svc25ActiveLoggerComponentBase34ALOG_DUMP_EVENT_LOG_cmdHandlerBaseEtjRN2Fw12CmdArgBufferE                                                                                                                                              
00036f64  _ZN3Svc25ActiveLoggerComponentBase34log_WARNING_HI_ALOG_FILE_WRITE_ERRENS0_13LogWriteErrorEi                                                                                                                                               
00036f18  _ZN3Svc25ActiveLoggerComponentBase36isConnected_FatalAnnounce_OutputPortEi                                                                                                                                                                 
00034b50  _ZN3Svc25ActiveLoggerComponentBase37ALOG_DUMP_FILTER_STATE_cmdHandlerBaseEtjRN2Fw12CmdArgBufferE                                                                                                                                           
00036de4  _ZN3Svc25ActiveLoggerComponentBase38log_ACTIVITY_HI_ALOG_ID_FILTER_ENABLEDEj                                                                                                                                                               
0003698c  _ZN3Svc25ActiveLoggerComponentBase38log_ACTIVITY_HI_ALOG_ID_FILTER_REMOVEDEj                                                                                                                                                               
00036858  _ZN3Svc25ActiveLoggerComponentBase39log_WARNING_LO_ALOG_ID_FILTER_LIST_FULLEj                                                                                                                                                              
00036724  _ZN3Svc25ActiveLoggerComponentBase39log_WARNING_LO_ALOG_ID_FILTER_NOT_FOUNDEj                                                                                                                                                              
0003627c  _ZN3Svc25ActiveLoggerComponentBase40log_ACTIVITY_HI_ALOG_FILE_WRITE_COMPLETEEj                                                                                                                                                             
00035c64  _ZN3Svc25ActiveLoggerComponentBase41ALOG_SET_EVENT_SEND_FILTER_cmdHandlerBaseEtjRN2Fw12CmdArgBufferE                                                                                                                                       
00036100  _ZN3Svc25ActiveLoggerComponentBase42log_ACTIVITY_LO_ALOG_SEVERITY_FILTER_STATEENS0_16EventFilterStateEbb                                                                                                                                   
00035e50  _ZN3Svc25ActiveLoggerComponentBase43ALOG_SET_EVENT_REPORT_FILTER_cmdHandlerBaseEtjRN2Fw12CmdArgBufferE                                                                                                                                     
000329d4  _ZN3Svc25ActiveLoggerComponentBase4initEii                                                                                                                                                                                                 
00032910  _ZN3Svc25ActiveLoggerComponentBase7getTimeEv                                                                                                                                                                                               
000327d0  _ZN3Svc25ActiveLoggerComponentBaseC1EPKc                                                                                                                                                                                                   
000327d0  _ZN3Svc25ActiveLoggerComponentBaseC2EPKc                                                                                                                                                                                                   
000327bc  _ZN3Svc25ActiveLoggerComponentBaseD0Ev                                                                                                                                                                                                     
000326b4  _ZN3Svc25ActiveLoggerComponentBaseD1Ev                                                                                                                                                                                                     
000326b4  _ZN3Svc25ActiveLoggerComponentBaseD2Ev                                                                                                                                                                                                     
0005d348  _ZN3Svc28ActiveRateGroupComponentBase10doDispatchEv                                                                                                                                                                                        
0005ea70  _ZN3Svc28ActiveRateGroupComponentBase11PingOut_outEij                                                                                                                                                                                      
0005dcd4  _ZN3Svc28ActiveRateGroupComponentBase13m_p_PingIn_inEPN2Fw20PassiveComponentBaseEij                                                                                                                                                        
0005d310  _ZN3Svc28ActiveRateGroupComponentBase14m_p_CycleIn_inEPN2Fw20PassiveComponentBaseEiRNS_8TimerValE                                                                                                                                          
0005d340  _ZN3Svc28ActiveRateGroupComponentBase17PingIn_preMsgHookEij                                                                                                                                                                                
0005d344  _ZN3Svc28ActiveRateGroupComponentBase18CycleIn_preMsgHookEiRNS_8TimerValE                                                                                                                                                                  
0005dbf8  _ZN3Svc28ActiveRateGroupComponentBase18PingIn_handlerBaseEij                                                                                                                                                                               
0005e528  _ZN3Svc28ActiveRateGroupComponentBase18set_Log_OutputPortEiPN2Fw12InputLogPortE                                                                                                                                                            
0005e4e8  _ZN3Svc28ActiveRateGroupComponentBase18set_Log_OutputPortEiPN2Fw18InputSerializePortE                                                                                                                                                      
0005e4a8  _ZN3Svc28ActiveRateGroupComponentBase18set_Tlm_OutputPortEiPN2Fw12InputTlmPortE                                                                                                                                                            
0005e468  _ZN3Svc28ActiveRateGroupComponentBase18set_Tlm_OutputPortEiPN2Fw18InputSerializePortE                                                                                                                                                      
0005e398  _ZN3Svc28ActiveRateGroupComponentBase18tlmWrite_RgMaxTimeEj                                                                                                                                                                                
0005dea8  _ZN3Svc28ActiveRateGroupComponentBase19CycleIn_handlerBaseEiRNS_8TimerValE                                                                                                                                                                 
0005cdec  _ZN3Svc28ActiveRateGroupComponentBase19set_Time_OutputPortEiPN2Fw13InputTimePortE                                                                                                                                                          
0005cdb0  _ZN3Svc28ActiveRateGroupComponentBase19set_Time_OutputPortEiPN2Fw18InputSerializePortE                                                                                                                                                     
0005cd84  _ZN3Svc28ActiveRateGroupComponentBase20get_PingIn_InputPortEi                                                                                                                                                                              
0005cd58  _ZN3Svc28ActiveRateGroupComponentBase21get_CycleIn_InputPortEi                                                                                                                                                                             
0005cc84  _ZN3Svc28ActiveRateGroupComponentBase21tlmWrite_RgCycleSlipsEj                                                                                                                                                                             
0005cc48  _ZN3Svc28ActiveRateGroupComponentBase22RateGroupMemberOut_outEij                                                                                                                                                                           
0005b6bc  _ZN3Svc28ActiveRateGroupComponentBase22getNum_Log_OutputPortsEv                                                                                                                                                                            
0005b6ac  _ZN3Svc28ActiveRateGroupComponentBase22getNum_Tlm_OutputPortsEv                                                                                                                                                                            
0005c6dc  _ZN3Svc28ActiveRateGroupComponentBase22set_LogText_OutputPortEiPN2Fw16InputLogTextPortE                                                                                                                                                    
0005c6a0  _ZN3Svc28ActiveRateGroupComponentBase22set_LogText_OutputPortEiPN2Fw18InputSerializePortE                                                                                                                                                  
0005c664  _ZN3Svc28ActiveRateGroupComponentBase22set_PingOut_OutputPortEiPN2Fw18InputSerializePortE                                                                                                                                                  
0005c628  _ZN3Svc28ActiveRateGroupComponentBase22set_PingOut_OutputPortEiPNS_13InputPingPortE                                                                                                                                                        
0005b6b4  _ZN3Svc28ActiveRateGroupComponentBase23getNum_Time_OutputPortsEv                                                                                                                                                                           
0005b694  _ZN3Svc28ActiveRateGroupComponentBase24getNum_PingIn_InputPortsEv                                                                                                                                                                          
0005b68c  _ZN3Svc28ActiveRateGroupComponentBase25getNum_CycleIn_InputPortsEv                                                                                                                                                                         
0005b6c4  _ZN3Svc28ActiveRateGroupComponentBase26getNum_LogText_OutputPortsEv                                                                                                                                                                        
0005b6a4  _ZN3Svc28ActiveRateGroupComponentBase26getNum_PingOut_OutputPortsEv                                                                                                                                                                        
0005c5ec  _ZN3Svc28ActiveRateGroupComponentBase26isConnected_Log_OutputPortEi                                                                                                                                                                        
0005c0fc  _ZN3Svc28ActiveRateGroupComponentBase26isConnected_Tlm_OutputPortEi                                                                                                                                                                        
0005c094  _ZN3Svc28ActiveRateGroupComponentBase27isConnected_Time_OutputPortEi                                                                                                                                                                       
0005c054  _ZN3Svc28ActiveRateGroupComponentBase30isConnected_LogText_OutputPortEi                                                                                                                                                                    
0005c020  _ZN3Svc28ActiveRateGroupComponentBase30isConnected_PingOut_OutputPortEi                                                                                                                                                                    
0005bf20  _ZN3Svc28ActiveRateGroupComponentBase31log_DIAGNOSTIC_RateGroupStartedEv                                                                                                                                                                   
0005bdf4  _ZN3Svc28ActiveRateGroupComponentBase33log_WARNING_HI_RateGroupCycleSlipEj                                                                                                                                                                 
0005b958  _ZN3Svc28ActiveRateGroupComponentBase33set_RateGroupMemberOut_OutputPortEiPN2Fw18InputSerializePortE                                                                                                                                       
0005b91c  _ZN3Svc28ActiveRateGroupComponentBase33set_RateGroupMemberOut_OutputPortEiPNS_14InputSchedPortE                                                                                                                                            
0005b69c  _ZN3Svc28ActiveRateGroupComponentBase37getNum_RateGroupMemberOut_OutputPortsEv                                                                                                                                                             
0005b8e8  _ZN3Svc28ActiveRateGroupComponentBase41isConnected_RateGroupMemberOut_OutputPortEi                                                                                                                                                         
0005b6cc  _ZN3Svc28ActiveRateGroupComponentBase4initEii                                                                                                                                                                                              
0005b620  _ZN3Svc28ActiveRateGroupComponentBase7getTimeEv                                                                                                                                                                                            
0005b524  _ZN3Svc28ActiveRateGroupComponentBaseC1EPKc                                                                                                                                                                                                
0005b524  _ZN3Svc28ActiveRateGroupComponentBaseC2EPKc                                                                                                                                                                                                
0005b510  _ZN3Svc28ActiveRateGroupComponentBaseD0Ev                                                                                                                                                                                                  
0005b454  _ZN3Svc28ActiveRateGroupComponentBaseD1Ev                                                                                                                                                                                                  
